
raytracer.o:     file format elf64-x86-64


Disassembly of section .text:

0000000000000000 <_ZlsRSoRK6Screen>:
  }
};


// puts out the image as PPM
std::ostream & operator<<(std::ostream & out, const Screen & screen) {
       0:	55                   	push   %rbp
       1:	48 89 e5             	mov    %rsp,%rbp
       4:	53                   	push   %rbx
       5:	48 83 ec 58          	sub    $0x58,%rsp
       9:	48 89 7d a8          	mov    %rdi,-0x58(%rbp)
       d:	48 89 75 a0          	mov    %rsi,-0x60(%rbp)
      11:	64 48 8b 04 25 28 00 	mov    %fs:0x28,%rax
      18:	00 00 
      1a:	48 89 45 e8          	mov    %rax,-0x18(%rbp)
      1e:	31 c0                	xor    %eax,%eax
  out << "P3" << std::endl;
      20:	48 8b 45 a8          	mov    -0x58(%rbp),%rax
      24:	48 8d 35 00 00 00 00 	lea    0x0(%rip),%rsi        # 2b <_ZlsRSoRK6Screen+0x2b>
      2b:	48 89 c7             	mov    %rax,%rdi
      2e:	e8 00 00 00 00       	callq  33 <_ZlsRSoRK6Screen+0x33>
      33:	48 89 c2             	mov    %rax,%rdx
      36:	48 8b 05 00 00 00 00 	mov    0x0(%rip),%rax        # 3d <_ZlsRSoRK6Screen+0x3d>
      3d:	48 89 c6             	mov    %rax,%rsi
      40:	48 89 d7             	mov    %rdx,%rdi
      43:	e8 00 00 00 00       	callq  48 <_ZlsRSoRK6Screen+0x48>
  out << screen.getWidth() << " " << screen.getHeight() << std::endl;
      48:	48 8b 45 a0          	mov    -0x60(%rbp),%rax
      4c:	48 89 c7             	mov    %rax,%rdi
      4f:	e8 00 00 00 00       	callq  54 <_ZlsRSoRK6Screen+0x54>
      54:	48 89 c2             	mov    %rax,%rdx
      57:	48 8b 45 a8          	mov    -0x58(%rbp),%rax
      5b:	48 89 d6             	mov    %rdx,%rsi
      5e:	48 89 c7             	mov    %rax,%rdi
      61:	e8 00 00 00 00       	callq  66 <_ZlsRSoRK6Screen+0x66>
      66:	48 8d 35 00 00 00 00 	lea    0x0(%rip),%rsi        # 6d <_ZlsRSoRK6Screen+0x6d>
      6d:	48 89 c7             	mov    %rax,%rdi
      70:	e8 00 00 00 00       	callq  75 <_ZlsRSoRK6Screen+0x75>
      75:	48 89 c3             	mov    %rax,%rbx
      78:	48 8b 45 a0          	mov    -0x60(%rbp),%rax
      7c:	48 89 c7             	mov    %rax,%rdi
      7f:	e8 00 00 00 00       	callq  84 <_ZlsRSoRK6Screen+0x84>
      84:	48 89 c6             	mov    %rax,%rsi
      87:	48 89 df             	mov    %rbx,%rdi
      8a:	e8 00 00 00 00       	callq  8f <_ZlsRSoRK6Screen+0x8f>
      8f:	48 89 c2             	mov    %rax,%rdx
      92:	48 8b 05 00 00 00 00 	mov    0x0(%rip),%rax        # 99 <_ZlsRSoRK6Screen+0x99>
      99:	48 89 c6             	mov    %rax,%rsi
      9c:	48 89 d7             	mov    %rdx,%rdi
      9f:	e8 00 00 00 00       	callq  a4 <_ZlsRSoRK6Screen+0xa4>
  out << "255" << std::endl;
      a4:	48 8b 45 a8          	mov    -0x58(%rbp),%rax
      a8:	48 8d 35 00 00 00 00 	lea    0x0(%rip),%rsi        # af <_ZlsRSoRK6Screen+0xaf>
      af:	48 89 c7             	mov    %rax,%rdi
      b2:	e8 00 00 00 00       	callq  b7 <_ZlsRSoRK6Screen+0xb7>
      b7:	48 89 c2             	mov    %rax,%rdx
      ba:	48 8b 05 00 00 00 00 	mov    0x0(%rip),%rax        # c1 <_ZlsRSoRK6Screen+0xc1>
      c1:	48 89 c6             	mov    %rax,%rsi
      c4:	48 89 d7             	mov    %rdx,%rdi
      c7:	e8 00 00 00 00       	callq  cc <_ZlsRSoRK6Screen+0xcc>
  for (size_t y = 0u; y < screen.getHeight(); y++) {
      cc:	48 c7 45 b0 00 00 00 	movq   $0x0,-0x50(%rbp)
      d3:	00 
      d4:	48 8b 45 a0          	mov    -0x60(%rbp),%rax
      d8:	48 89 c7             	mov    %rax,%rdi
      db:	e8 00 00 00 00       	callq  e0 <_ZlsRSoRK6Screen+0xe0>
      e0:	48 39 45 b0          	cmp    %rax,-0x50(%rbp)
      e4:	0f 92 c0             	setb   %al
      e7:	84 c0                	test   %al,%al
      e9:	0f 84 86 01 00 00    	je     275 <_ZlsRSoRK6Screen+0x275>
    for (size_t x = 0u; x < screen.getWidth(); x++) {
      ef:	48 c7 45 b8 00 00 00 	movq   $0x0,-0x48(%rbp)
      f6:	00 
      f7:	48 8b 45 a0          	mov    -0x60(%rbp),%rax
      fb:	48 89 c7             	mov    %rax,%rdi
      fe:	e8 00 00 00 00       	callq  103 <_ZlsRSoRK6Screen+0x103>
     103:	48 39 45 b8          	cmp    %rax,-0x48(%rbp)
     107:	0f 92 c0             	setb   %al
     10a:	84 c0                	test   %al,%al
     10c:	0f 84 43 01 00 00    	je     255 <_ZlsRSoRK6Screen+0x255>
      std::cout << (unsigned short) (screen.getPixel(x,y).getRed() * 255.0) << " "
     112:	48 8b 55 b0          	mov    -0x50(%rbp),%rdx
     116:	48 8b 4d b8          	mov    -0x48(%rbp),%rcx
     11a:	48 8b 45 a0          	mov    -0x60(%rbp),%rax
     11e:	48 89 ce             	mov    %rcx,%rsi
     121:	48 89 c7             	mov    %rax,%rdi
     124:	e8 00 00 00 00       	callq  129 <_ZlsRSoRK6Screen+0x129>
     129:	c4 e1 f9 7e c0       	vmovq  %xmm0,%rax
     12e:	c5 f8 28 c1          	vmovaps %xmm1,%xmm0
     132:	48 89 45 c4          	mov    %rax,-0x3c(%rbp)
     136:	c5 fa 11 45 cc       	vmovss %xmm0,-0x34(%rbp)
     13b:	48 8d 45 c4          	lea    -0x3c(%rbp),%rax
     13f:	48 89 c7             	mov    %rax,%rdi
     142:	e8 00 00 00 00       	callq  147 <_ZlsRSoRK6Screen+0x147>
     147:	c5 fa 5a c0          	vcvtss2sd %xmm0,%xmm0,%xmm0
     14b:	c5 fb 10 0d 00 00 00 	vmovsd 0x0(%rip),%xmm1        # 153 <_ZlsRSoRK6Screen+0x153>
     152:	00 
     153:	c5 fb 59 c1          	vmulsd %xmm1,%xmm0,%xmm0
     157:	c5 fb 2c c0          	vcvttsd2si %xmm0,%eax
     15b:	0f b7 c0             	movzwl %ax,%eax
     15e:	89 c6                	mov    %eax,%esi
     160:	48 8d 3d 00 00 00 00 	lea    0x0(%rip),%rdi        # 167 <_ZlsRSoRK6Screen+0x167>
     167:	e8 00 00 00 00       	callq  16c <_ZlsRSoRK6Screen+0x16c>
     16c:	48 8d 35 00 00 00 00 	lea    0x0(%rip),%rsi        # 173 <_ZlsRSoRK6Screen+0x173>
     173:	48 89 c7             	mov    %rax,%rdi
     176:	e8 00 00 00 00       	callq  17b <_ZlsRSoRK6Screen+0x17b>
     17b:	48 89 c3             	mov    %rax,%rbx
                << (unsigned short) (screen.getPixel(x,y).getGreen() * 255.0) << " "
     17e:	48 8b 55 b0          	mov    -0x50(%rbp),%rdx
     182:	48 8b 4d b8          	mov    -0x48(%rbp),%rcx
     186:	48 8b 45 a0          	mov    -0x60(%rbp),%rax
     18a:	48 89 ce             	mov    %rcx,%rsi
     18d:	48 89 c7             	mov    %rax,%rdi
     190:	e8 00 00 00 00       	callq  195 <_ZlsRSoRK6Screen+0x195>
     195:	c4 e1 f9 7e c0       	vmovq  %xmm0,%rax
     19a:	c5 f8 28 c1          	vmovaps %xmm1,%xmm0
     19e:	48 89 45 d0          	mov    %rax,-0x30(%rbp)
     1a2:	c5 fa 11 45 d8       	vmovss %xmm0,-0x28(%rbp)
     1a7:	48 8d 45 d0          	lea    -0x30(%rbp),%rax
     1ab:	48 89 c7             	mov    %rax,%rdi
     1ae:	e8 00 00 00 00       	callq  1b3 <_ZlsRSoRK6Screen+0x1b3>
     1b3:	c5 fa 5a c0          	vcvtss2sd %xmm0,%xmm0,%xmm0
     1b7:	c5 fb 10 0d 00 00 00 	vmovsd 0x0(%rip),%xmm1        # 1bf <_ZlsRSoRK6Screen+0x1bf>
     1be:	00 
     1bf:	c5 fb 59 c1          	vmulsd %xmm1,%xmm0,%xmm0
     1c3:	c5 fb 2c c0          	vcvttsd2si %xmm0,%eax
     1c7:	0f b7 c0             	movzwl %ax,%eax
     1ca:	89 c6                	mov    %eax,%esi
     1cc:	48 89 df             	mov    %rbx,%rdi
     1cf:	e8 00 00 00 00       	callq  1d4 <_ZlsRSoRK6Screen+0x1d4>
     1d4:	48 8d 35 00 00 00 00 	lea    0x0(%rip),%rsi        # 1db <_ZlsRSoRK6Screen+0x1db>
     1db:	48 89 c7             	mov    %rax,%rdi
     1de:	e8 00 00 00 00       	callq  1e3 <_ZlsRSoRK6Screen+0x1e3>
     1e3:	48 89 c3             	mov    %rax,%rbx
                << (unsigned short) (screen.getPixel(x,y).getBlue() * 255.0) << " ";
     1e6:	48 8b 55 b0          	mov    -0x50(%rbp),%rdx
     1ea:	48 8b 4d b8          	mov    -0x48(%rbp),%rcx
     1ee:	48 8b 45 a0          	mov    -0x60(%rbp),%rax
     1f2:	48 89 ce             	mov    %rcx,%rsi
     1f5:	48 89 c7             	mov    %rax,%rdi
     1f8:	e8 00 00 00 00       	callq  1fd <_ZlsRSoRK6Screen+0x1fd>
     1fd:	c4 e1 f9 7e c0       	vmovq  %xmm0,%rax
     202:	c5 f8 28 c1          	vmovaps %xmm1,%xmm0
     206:	48 89 45 dc          	mov    %rax,-0x24(%rbp)
     20a:	c5 fa 11 45 e4       	vmovss %xmm0,-0x1c(%rbp)
     20f:	48 8d 45 dc          	lea    -0x24(%rbp),%rax
     213:	48 89 c7             	mov    %rax,%rdi
     216:	e8 00 00 00 00       	callq  21b <_ZlsRSoRK6Screen+0x21b>
     21b:	c5 fa 5a c0          	vcvtss2sd %xmm0,%xmm0,%xmm0
     21f:	c5 fb 10 0d 00 00 00 	vmovsd 0x0(%rip),%xmm1        # 227 <_ZlsRSoRK6Screen+0x227>
     226:	00 
     227:	c5 fb 59 c1          	vmulsd %xmm1,%xmm0,%xmm0
     22b:	c5 fb 2c c0          	vcvttsd2si %xmm0,%eax
     22f:	0f b7 c0             	movzwl %ax,%eax
     232:	89 c6                	mov    %eax,%esi
     234:	48 89 df             	mov    %rbx,%rdi
     237:	e8 00 00 00 00       	callq  23c <_ZlsRSoRK6Screen+0x23c>
     23c:	48 8d 35 00 00 00 00 	lea    0x0(%rip),%rsi        # 243 <_ZlsRSoRK6Screen+0x243>
     243:	48 89 c7             	mov    %rax,%rdi
     246:	e8 00 00 00 00       	callq  24b <_ZlsRSoRK6Screen+0x24b>
    for (size_t x = 0u; x < screen.getWidth(); x++) {
     24b:	48 83 45 b8 01       	addq   $0x1,-0x48(%rbp)
     250:	e9 a2 fe ff ff       	jmpq   f7 <_ZlsRSoRK6Screen+0xf7>
    }
    std::cout << std::endl;
     255:	48 8b 05 00 00 00 00 	mov    0x0(%rip),%rax        # 25c <_ZlsRSoRK6Screen+0x25c>
     25c:	48 89 c6             	mov    %rax,%rsi
     25f:	48 8d 3d 00 00 00 00 	lea    0x0(%rip),%rdi        # 266 <_ZlsRSoRK6Screen+0x266>
     266:	e8 00 00 00 00       	callq  26b <_ZlsRSoRK6Screen+0x26b>
  for (size_t y = 0u; y < screen.getHeight(); y++) {
     26b:	48 83 45 b0 01       	addq   $0x1,-0x50(%rbp)
     270:	e9 5f fe ff ff       	jmpq   d4 <_ZlsRSoRK6Screen+0xd4>
  }
  std::cout << std::endl;
     275:	48 8b 05 00 00 00 00 	mov    0x0(%rip),%rax        # 27c <_ZlsRSoRK6Screen+0x27c>
     27c:	48 89 c6             	mov    %rax,%rsi
     27f:	48 8d 3d 00 00 00 00 	lea    0x0(%rip),%rdi        # 286 <_ZlsRSoRK6Screen+0x286>
     286:	e8 00 00 00 00       	callq  28b <_ZlsRSoRK6Screen+0x28b>
  return out;
     28b:	48 8b 45 a8          	mov    -0x58(%rbp),%rax
}
     28f:	48 8b 4d e8          	mov    -0x18(%rbp),%rcx
     293:	64 48 33 0c 25 28 00 	xor    %fs:0x28,%rcx
     29a:	00 00 
     29c:	74 05                	je     2a3 <_ZlsRSoRK6Screen+0x2a3>
     29e:	e8 00 00 00 00       	callq  2a3 <_ZlsRSoRK6Screen+0x2a3>
     2a3:	48 83 c4 58          	add    $0x58,%rsp
     2a7:	5b                   	pop    %rbx
     2a8:	5d                   	pop    %rbp
     2a9:	c3                   	retq   

00000000000002aa <_Z9write_bmpRSoRK6Screen>:

// writes out the image as binary BMP (for windows)
void write_bmp(std::ostream & out, const Screen & screen) {
     2aa:	55                   	push   %rbp
     2ab:	48 89 e5             	mov    %rsp,%rbp
     2ae:	53                   	push   %rbx
     2af:	48 83 ec 58          	sub    $0x58,%rsp
     2b3:	48 89 7d a8          	mov    %rdi,-0x58(%rbp)
     2b7:	48 89 75 a0          	mov    %rsi,-0x60(%rbp)
     2bb:	64 48 8b 04 25 28 00 	mov    %fs:0x28,%rax
     2c2:	00 00 
     2c4:	48 89 45 e8          	mov    %rax,-0x18(%rbp)
     2c8:	31 c0                	xor    %eax,%eax
  unsigned long long size_of_bitmap_data = screen.getWidth() * screen.getHeight() * 4;
     2ca:	48 8b 45 a0          	mov    -0x60(%rbp),%rax
     2ce:	48 89 c7             	mov    %rax,%rdi
     2d1:	e8 00 00 00 00       	callq  2d6 <_Z9write_bmpRSoRK6Screen+0x2c>
     2d6:	48 89 c3             	mov    %rax,%rbx
     2d9:	48 8b 45 a0          	mov    -0x60(%rbp),%rax
     2dd:	48 89 c7             	mov    %rax,%rdi
     2e0:	e8 00 00 00 00       	callq  2e5 <_Z9write_bmpRSoRK6Screen+0x3b>
     2e5:	48 0f af c3          	imul   %rbx,%rax
     2e9:	48 c1 e0 02          	shl    $0x2,%rax
     2ed:	48 89 45 d0          	mov    %rax,-0x30(%rbp)
  out.put(0x42); out.put(0x4D); // "BM"
     2f1:	48 8b 45 a8          	mov    -0x58(%rbp),%rax
     2f5:	be 42 00 00 00       	mov    $0x42,%esi
     2fa:	48 89 c7             	mov    %rax,%rdi
     2fd:	e8 00 00 00 00       	callq  302 <_Z9write_bmpRSoRK6Screen+0x58>
     302:	48 8b 45 a8          	mov    -0x58(%rbp),%rax
     306:	be 4d 00 00 00       	mov    $0x4d,%esi
     30b:	48 89 c7             	mov    %rax,%rdi
     30e:	e8 00 00 00 00       	callq  313 <_Z9write_bmpRSoRK6Screen+0x69>
  out.put(0x00); out.put(0x00); out.put(0x00); out.put(0x00); // size of bmp file
     313:	48 8b 45 a8          	mov    -0x58(%rbp),%rax
     317:	be 00 00 00 00       	mov    $0x0,%esi
     31c:	48 89 c7             	mov    %rax,%rdi
     31f:	e8 00 00 00 00       	callq  324 <_Z9write_bmpRSoRK6Screen+0x7a>
     324:	48 8b 45 a8          	mov    -0x58(%rbp),%rax
     328:	be 00 00 00 00       	mov    $0x0,%esi
     32d:	48 89 c7             	mov    %rax,%rdi
     330:	e8 00 00 00 00       	callq  335 <_Z9write_bmpRSoRK6Screen+0x8b>
     335:	48 8b 45 a8          	mov    -0x58(%rbp),%rax
     339:	be 00 00 00 00       	mov    $0x0,%esi
     33e:	48 89 c7             	mov    %rax,%rdi
     341:	e8 00 00 00 00       	callq  346 <_Z9write_bmpRSoRK6Screen+0x9c>
     346:	48 8b 45 a8          	mov    -0x58(%rbp),%rax
     34a:	be 00 00 00 00       	mov    $0x0,%esi
     34f:	48 89 c7             	mov    %rax,%rdi
     352:	e8 00 00 00 00       	callq  357 <_Z9write_bmpRSoRK6Screen+0xad>
  out.put(0x00); out.put(0x00);
     357:	48 8b 45 a8          	mov    -0x58(%rbp),%rax
     35b:	be 00 00 00 00       	mov    $0x0,%esi
     360:	48 89 c7             	mov    %rax,%rdi
     363:	e8 00 00 00 00       	callq  368 <_Z9write_bmpRSoRK6Screen+0xbe>
     368:	48 8b 45 a8          	mov    -0x58(%rbp),%rax
     36c:	be 00 00 00 00       	mov    $0x0,%esi
     371:	48 89 c7             	mov    %rax,%rdi
     374:	e8 00 00 00 00       	callq  379 <_Z9write_bmpRSoRK6Screen+0xcf>
  out.put(0x00); out.put(0x00);
     379:	48 8b 45 a8          	mov    -0x58(%rbp),%rax
     37d:	be 00 00 00 00       	mov    $0x0,%esi
     382:	48 89 c7             	mov    %rax,%rdi
     385:	e8 00 00 00 00       	callq  38a <_Z9write_bmpRSoRK6Screen+0xe0>
     38a:	48 8b 45 a8          	mov    -0x58(%rbp),%rax
     38e:	be 00 00 00 00       	mov    $0x0,%esi
     393:	48 89 c7             	mov    %rax,%rdi
     396:	e8 00 00 00 00       	callq  39b <_Z9write_bmpRSoRK6Screen+0xf1>
  out.put(0x36); out.put(0x00);out.put(0x00); out.put(0x00); // offset to start of pixel array
     39b:	48 8b 45 a8          	mov    -0x58(%rbp),%rax
     39f:	be 36 00 00 00       	mov    $0x36,%esi
     3a4:	48 89 c7             	mov    %rax,%rdi
     3a7:	e8 00 00 00 00       	callq  3ac <_Z9write_bmpRSoRK6Screen+0x102>
     3ac:	48 8b 45 a8          	mov    -0x58(%rbp),%rax
     3b0:	be 00 00 00 00       	mov    $0x0,%esi
     3b5:	48 89 c7             	mov    %rax,%rdi
     3b8:	e8 00 00 00 00       	callq  3bd <_Z9write_bmpRSoRK6Screen+0x113>
     3bd:	48 8b 45 a8          	mov    -0x58(%rbp),%rax
     3c1:	be 00 00 00 00       	mov    $0x0,%esi
     3c6:	48 89 c7             	mov    %rax,%rdi
     3c9:	e8 00 00 00 00       	callq  3ce <_Z9write_bmpRSoRK6Screen+0x124>
     3ce:	48 8b 45 a8          	mov    -0x58(%rbp),%rax
     3d2:	be 00 00 00 00       	mov    $0x0,%esi
     3d7:	48 89 c7             	mov    %rax,%rdi
     3da:	e8 00 00 00 00       	callq  3df <_Z9write_bmpRSoRK6Screen+0x135>
  // Header
  out.put(0x28); out.put(0x00); out.put(0x00); out.put(0x00);  // 40 bytes Number of bytes in the DIB header (from this point)
     3df:	48 8b 45 a8          	mov    -0x58(%rbp),%rax
     3e3:	be 28 00 00 00       	mov    $0x28,%esi
     3e8:	48 89 c7             	mov    %rax,%rdi
     3eb:	e8 00 00 00 00       	callq  3f0 <_Z9write_bmpRSoRK6Screen+0x146>
     3f0:	48 8b 45 a8          	mov    -0x58(%rbp),%rax
     3f4:	be 00 00 00 00       	mov    $0x0,%esi
     3f9:	48 89 c7             	mov    %rax,%rdi
     3fc:	e8 00 00 00 00       	callq  401 <_Z9write_bmpRSoRK6Screen+0x157>
     401:	48 8b 45 a8          	mov    -0x58(%rbp),%rax
     405:	be 00 00 00 00       	mov    $0x0,%esi
     40a:	48 89 c7             	mov    %rax,%rdi
     40d:	e8 00 00 00 00       	callq  412 <_Z9write_bmpRSoRK6Screen+0x168>
     412:	48 8b 45 a8          	mov    -0x58(%rbp),%rax
     416:	be 00 00 00 00       	mov    $0x0,%esi
     41b:	48 89 c7             	mov    %rax,%rdi
     41e:	e8 00 00 00 00       	callq  423 <_Z9write_bmpRSoRK6Screen+0x179>
  out.put( screen.getWidth() & 0xFF ); out.put( screen.getWidth() >> 8 & 0xFF );
     423:	48 8b 45 a0          	mov    -0x60(%rbp),%rax
     427:	48 89 c7             	mov    %rax,%rdi
     42a:	e8 00 00 00 00       	callq  42f <_Z9write_bmpRSoRK6Screen+0x185>
     42f:	0f be d0             	movsbl %al,%edx
     432:	48 8b 45 a8          	mov    -0x58(%rbp),%rax
     436:	89 d6                	mov    %edx,%esi
     438:	48 89 c7             	mov    %rax,%rdi
     43b:	e8 00 00 00 00       	callq  440 <_Z9write_bmpRSoRK6Screen+0x196>
     440:	48 8b 45 a0          	mov    -0x60(%rbp),%rax
     444:	48 89 c7             	mov    %rax,%rdi
     447:	e8 00 00 00 00       	callq  44c <_Z9write_bmpRSoRK6Screen+0x1a2>
     44c:	48 c1 e8 08          	shr    $0x8,%rax
     450:	0f be d0             	movsbl %al,%edx
     453:	48 8b 45 a8          	mov    -0x58(%rbp),%rax
     457:	89 d6                	mov    %edx,%esi
     459:	48 89 c7             	mov    %rax,%rdi
     45c:	e8 00 00 00 00       	callq  461 <_Z9write_bmpRSoRK6Screen+0x1b7>
  out.put(0x00); out.put(0x00); // width in pixel
     461:	48 8b 45 a8          	mov    -0x58(%rbp),%rax
     465:	be 00 00 00 00       	mov    $0x0,%esi
     46a:	48 89 c7             	mov    %rax,%rdi
     46d:	e8 00 00 00 00       	callq  472 <_Z9write_bmpRSoRK6Screen+0x1c8>
     472:	48 8b 45 a8          	mov    -0x58(%rbp),%rax
     476:	be 00 00 00 00       	mov    $0x0,%esi
     47b:	48 89 c7             	mov    %rax,%rdi
     47e:	e8 00 00 00 00       	callq  483 <_Z9write_bmpRSoRK6Screen+0x1d9>
  out.put( screen.getHeight() & 0xFF ); out.put( screen.getHeight() >> 8 & 0xFF );
     483:	48 8b 45 a0          	mov    -0x60(%rbp),%rax
     487:	48 89 c7             	mov    %rax,%rdi
     48a:	e8 00 00 00 00       	callq  48f <_Z9write_bmpRSoRK6Screen+0x1e5>
     48f:	0f be d0             	movsbl %al,%edx
     492:	48 8b 45 a8          	mov    -0x58(%rbp),%rax
     496:	89 d6                	mov    %edx,%esi
     498:	48 89 c7             	mov    %rax,%rdi
     49b:	e8 00 00 00 00       	callq  4a0 <_Z9write_bmpRSoRK6Screen+0x1f6>
     4a0:	48 8b 45 a0          	mov    -0x60(%rbp),%rax
     4a4:	48 89 c7             	mov    %rax,%rdi
     4a7:	e8 00 00 00 00       	callq  4ac <_Z9write_bmpRSoRK6Screen+0x202>
     4ac:	48 c1 e8 08          	shr    $0x8,%rax
     4b0:	0f be d0             	movsbl %al,%edx
     4b3:	48 8b 45 a8          	mov    -0x58(%rbp),%rax
     4b7:	89 d6                	mov    %edx,%esi
     4b9:	48 89 c7             	mov    %rax,%rdi
     4bc:	e8 00 00 00 00       	callq  4c1 <_Z9write_bmpRSoRK6Screen+0x217>
  out.put(0x00); out.put(0x00); // height in pixel
     4c1:	48 8b 45 a8          	mov    -0x58(%rbp),%rax
     4c5:	be 00 00 00 00       	mov    $0x0,%esi
     4ca:	48 89 c7             	mov    %rax,%rdi
     4cd:	e8 00 00 00 00       	callq  4d2 <_Z9write_bmpRSoRK6Screen+0x228>
     4d2:	48 8b 45 a8          	mov    -0x58(%rbp),%rax
     4d6:	be 00 00 00 00       	mov    $0x0,%esi
     4db:	48 89 c7             	mov    %rax,%rdi
     4de:	e8 00 00 00 00       	callq  4e3 <_Z9write_bmpRSoRK6Screen+0x239>
  out.put(0x01); out.put(0x00); // 1 = number of color planes used
     4e3:	48 8b 45 a8          	mov    -0x58(%rbp),%rax
     4e7:	be 01 00 00 00       	mov    $0x1,%esi
     4ec:	48 89 c7             	mov    %rax,%rdi
     4ef:	e8 00 00 00 00       	callq  4f4 <_Z9write_bmpRSoRK6Screen+0x24a>
     4f4:	48 8b 45 a8          	mov    -0x58(%rbp),%rax
     4f8:	be 00 00 00 00       	mov    $0x0,%esi
     4fd:	48 89 c7             	mov    %rax,%rdi
     500:	e8 00 00 00 00       	callq  505 <_Z9write_bmpRSoRK6Screen+0x25b>
  out.put(0x18); out.put(0x00); // 24 bits per pixel (RGB)
     505:	48 8b 45 a8          	mov    -0x58(%rbp),%rax
     509:	be 18 00 00 00       	mov    $0x18,%esi
     50e:	48 89 c7             	mov    %rax,%rdi
     511:	e8 00 00 00 00       	callq  516 <_Z9write_bmpRSoRK6Screen+0x26c>
     516:	48 8b 45 a8          	mov    -0x58(%rbp),%rax
     51a:	be 00 00 00 00       	mov    $0x0,%esi
     51f:	48 89 c7             	mov    %rax,%rdi
     522:	e8 00 00 00 00       	callq  527 <_Z9write_bmpRSoRK6Screen+0x27d>
  out.put(0x00); out.put(0x00); out.put(0x00); out.put(0x00); // 0 = no compression
     527:	48 8b 45 a8          	mov    -0x58(%rbp),%rax
     52b:	be 00 00 00 00       	mov    $0x0,%esi
     530:	48 89 c7             	mov    %rax,%rdi
     533:	e8 00 00 00 00       	callq  538 <_Z9write_bmpRSoRK6Screen+0x28e>
     538:	48 8b 45 a8          	mov    -0x58(%rbp),%rax
     53c:	be 00 00 00 00       	mov    $0x0,%esi
     541:	48 89 c7             	mov    %rax,%rdi
     544:	e8 00 00 00 00       	callq  549 <_Z9write_bmpRSoRK6Screen+0x29f>
     549:	48 8b 45 a8          	mov    -0x58(%rbp),%rax
     54d:	be 00 00 00 00       	mov    $0x0,%esi
     552:	48 89 c7             	mov    %rax,%rdi
     555:	e8 00 00 00 00       	callq  55a <_Z9write_bmpRSoRK6Screen+0x2b0>
     55a:	48 8b 45 a8          	mov    -0x58(%rbp),%rax
     55e:	be 00 00 00 00       	mov    $0x0,%esi
     563:	48 89 c7             	mov    %rax,%rdi
     566:	e8 00 00 00 00       	callq  56b <_Z9write_bmpRSoRK6Screen+0x2c1>
  // size of raw bitmap data 16 bytes
  out.put(size_of_bitmap_data & 0xFF); 
     56b:	48 8b 45 d0          	mov    -0x30(%rbp),%rax
     56f:	0f be d0             	movsbl %al,%edx
     572:	48 8b 45 a8          	mov    -0x58(%rbp),%rax
     576:	89 d6                	mov    %edx,%esi
     578:	48 89 c7             	mov    %rax,%rdi
     57b:	e8 00 00 00 00       	callq  580 <_Z9write_bmpRSoRK6Screen+0x2d6>
  out.put(size_of_bitmap_data >> 8 & 0xFF); 
     580:	48 8b 45 d0          	mov    -0x30(%rbp),%rax
     584:	48 c1 e8 08          	shr    $0x8,%rax
     588:	0f be d0             	movsbl %al,%edx
     58b:	48 8b 45 a8          	mov    -0x58(%rbp),%rax
     58f:	89 d6                	mov    %edx,%esi
     591:	48 89 c7             	mov    %rax,%rdi
     594:	e8 00 00 00 00       	callq  599 <_Z9write_bmpRSoRK6Screen+0x2ef>
  out.put(size_of_bitmap_data >> 16 & 0xFF); 
     599:	48 8b 45 d0          	mov    -0x30(%rbp),%rax
     59d:	48 c1 e8 10          	shr    $0x10,%rax
     5a1:	0f be d0             	movsbl %al,%edx
     5a4:	48 8b 45 a8          	mov    -0x58(%rbp),%rax
     5a8:	89 d6                	mov    %edx,%esi
     5aa:	48 89 c7             	mov    %rax,%rdi
     5ad:	e8 00 00 00 00       	callq  5b2 <_Z9write_bmpRSoRK6Screen+0x308>
  out.put(size_of_bitmap_data >> 32 & 0xFF); 
     5b2:	48 8b 45 d0          	mov    -0x30(%rbp),%rax
     5b6:	48 c1 e8 20          	shr    $0x20,%rax
     5ba:	0f be d0             	movsbl %al,%edx
     5bd:	48 8b 45 a8          	mov    -0x58(%rbp),%rax
     5c1:	89 d6                	mov    %edx,%esi
     5c3:	48 89 c7             	mov    %rax,%rdi
     5c6:	e8 00 00 00 00       	callq  5cb <_Z9write_bmpRSoRK6Screen+0x321>
  out.put(0x13); out.put(0x0B); out.put(0x00); out.put(0x00); // 72 DPI resolution for printing
     5cb:	48 8b 45 a8          	mov    -0x58(%rbp),%rax
     5cf:	be 13 00 00 00       	mov    $0x13,%esi
     5d4:	48 89 c7             	mov    %rax,%rdi
     5d7:	e8 00 00 00 00       	callq  5dc <_Z9write_bmpRSoRK6Screen+0x332>
     5dc:	48 8b 45 a8          	mov    -0x58(%rbp),%rax
     5e0:	be 0b 00 00 00       	mov    $0xb,%esi
     5e5:	48 89 c7             	mov    %rax,%rdi
     5e8:	e8 00 00 00 00       	callq  5ed <_Z9write_bmpRSoRK6Screen+0x343>
     5ed:	48 8b 45 a8          	mov    -0x58(%rbp),%rax
     5f1:	be 00 00 00 00       	mov    $0x0,%esi
     5f6:	48 89 c7             	mov    %rax,%rdi
     5f9:	e8 00 00 00 00       	callq  5fe <_Z9write_bmpRSoRK6Screen+0x354>
     5fe:	48 8b 45 a8          	mov    -0x58(%rbp),%rax
     602:	be 00 00 00 00       	mov    $0x0,%esi
     607:	48 89 c7             	mov    %rax,%rdi
     60a:	e8 00 00 00 00       	callq  60f <_Z9write_bmpRSoRK6Screen+0x365>
  out.put(0x13); out.put(0x0B); out.put(0x00); out.put(0x00); //           "
     60f:	48 8b 45 a8          	mov    -0x58(%rbp),%rax
     613:	be 13 00 00 00       	mov    $0x13,%esi
     618:	48 89 c7             	mov    %rax,%rdi
     61b:	e8 00 00 00 00       	callq  620 <_Z9write_bmpRSoRK6Screen+0x376>
     620:	48 8b 45 a8          	mov    -0x58(%rbp),%rax
     624:	be 0b 00 00 00       	mov    $0xb,%esi
     629:	48 89 c7             	mov    %rax,%rdi
     62c:	e8 00 00 00 00       	callq  631 <_Z9write_bmpRSoRK6Screen+0x387>
     631:	48 8b 45 a8          	mov    -0x58(%rbp),%rax
     635:	be 00 00 00 00       	mov    $0x0,%esi
     63a:	48 89 c7             	mov    %rax,%rdi
     63d:	e8 00 00 00 00       	callq  642 <_Z9write_bmpRSoRK6Screen+0x398>
     642:	48 8b 45 a8          	mov    -0x58(%rbp),%rax
     646:	be 00 00 00 00       	mov    $0x0,%esi
     64b:	48 89 c7             	mov    %rax,%rdi
     64e:	e8 00 00 00 00       	callq  653 <_Z9write_bmpRSoRK6Screen+0x3a9>
  out.put(0x00); out.put(0x00); out.put(0x00); out.put(0x00); // 0 colors in the palette
     653:	48 8b 45 a8          	mov    -0x58(%rbp),%rax
     657:	be 00 00 00 00       	mov    $0x0,%esi
     65c:	48 89 c7             	mov    %rax,%rdi
     65f:	e8 00 00 00 00       	callq  664 <_Z9write_bmpRSoRK6Screen+0x3ba>
     664:	48 8b 45 a8          	mov    -0x58(%rbp),%rax
     668:	be 00 00 00 00       	mov    $0x0,%esi
     66d:	48 89 c7             	mov    %rax,%rdi
     670:	e8 00 00 00 00       	callq  675 <_Z9write_bmpRSoRK6Screen+0x3cb>
     675:	48 8b 45 a8          	mov    -0x58(%rbp),%rax
     679:	be 00 00 00 00       	mov    $0x0,%esi
     67e:	48 89 c7             	mov    %rax,%rdi
     681:	e8 00 00 00 00       	callq  686 <_Z9write_bmpRSoRK6Screen+0x3dc>
     686:	48 8b 45 a8          	mov    -0x58(%rbp),%rax
     68a:	be 00 00 00 00       	mov    $0x0,%esi
     68f:	48 89 c7             	mov    %rax,%rdi
     692:	e8 00 00 00 00       	callq  697 <_Z9write_bmpRSoRK6Screen+0x3ed>
  out.put(0x00); out.put(0x00); out.put(0x00); out.put(0x00); // 0 = all colors are important
     697:	48 8b 45 a8          	mov    -0x58(%rbp),%rax
     69b:	be 00 00 00 00       	mov    $0x0,%esi
     6a0:	48 89 c7             	mov    %rax,%rdi
     6a3:	e8 00 00 00 00       	callq  6a8 <_Z9write_bmpRSoRK6Screen+0x3fe>
     6a8:	48 8b 45 a8          	mov    -0x58(%rbp),%rax
     6ac:	be 00 00 00 00       	mov    $0x0,%esi
     6b1:	48 89 c7             	mov    %rax,%rdi
     6b4:	e8 00 00 00 00       	callq  6b9 <_Z9write_bmpRSoRK6Screen+0x40f>
     6b9:	48 8b 45 a8          	mov    -0x58(%rbp),%rax
     6bd:	be 00 00 00 00       	mov    $0x0,%esi
     6c2:	48 89 c7             	mov    %rax,%rdi
     6c5:	e8 00 00 00 00       	callq  6ca <_Z9write_bmpRSoRK6Screen+0x420>
     6ca:	48 8b 45 a8          	mov    -0x58(%rbp),%rax
     6ce:	be 00 00 00 00       	mov    $0x0,%esi
     6d3:	48 89 c7             	mov    %rax,%rdi
     6d6:	e8 00 00 00 00       	callq  6db <_Z9write_bmpRSoRK6Screen+0x431>
  // start of pixel map array, 4 byte alignment padding at end of line if nedded
  for (size_t y = 0u; y < screen.getHeight(); y++ ) {
     6db:	48 c7 45 b8 00 00 00 	movq   $0x0,-0x48(%rbp)
     6e2:	00 
     6e3:	48 8b 45 a0          	mov    -0x60(%rbp),%rax
     6e7:	48 89 c7             	mov    %rax,%rdi
     6ea:	e8 00 00 00 00       	callq  6ef <_Z9write_bmpRSoRK6Screen+0x445>
     6ef:	48 39 45 b8          	cmp    %rax,-0x48(%rbp)
     6f3:	0f 92 c0             	setb   %al
     6f6:	84 c0                	test   %al,%al
     6f8:	0f 84 af 01 00 00    	je     8ad <_Z9write_bmpRSoRK6Screen+0x603>
    for (size_t x = 0u; x < screen.getWidth(); x++) {
     6fe:	48 c7 45 c0 00 00 00 	movq   $0x0,-0x40(%rbp)
     705:	00 
     706:	48 8b 45 a0          	mov    -0x60(%rbp),%rax
     70a:	48 89 c7             	mov    %rax,%rdi
     70d:	e8 00 00 00 00       	callq  712 <_Z9write_bmpRSoRK6Screen+0x468>
     712:	48 39 45 c0          	cmp    %rax,-0x40(%rbp)
     716:	0f 92 c0             	setb   %al
     719:	84 c0                	test   %al,%al
     71b:	0f 84 48 01 00 00    	je     869 <_Z9write_bmpRSoRK6Screen+0x5bf>
      out.put( ((unsigned short) (screen.getPixel(x, screen.getHeight() - 1 - y).getRed() * 255.0) ) & 0xFF );
     721:	48 8b 45 a0          	mov    -0x60(%rbp),%rax
     725:	48 89 c7             	mov    %rax,%rdi
     728:	e8 00 00 00 00       	callq  72d <_Z9write_bmpRSoRK6Screen+0x483>
     72d:	48 2b 45 b8          	sub    -0x48(%rbp),%rax
     731:	48 8d 50 ff          	lea    -0x1(%rax),%rdx
     735:	48 8b 4d c0          	mov    -0x40(%rbp),%rcx
     739:	48 8b 45 a0          	mov    -0x60(%rbp),%rax
     73d:	48 89 ce             	mov    %rcx,%rsi
     740:	48 89 c7             	mov    %rax,%rdi
     743:	e8 00 00 00 00       	callq  748 <_Z9write_bmpRSoRK6Screen+0x49e>
     748:	c4 e1 f9 7e c0       	vmovq  %xmm0,%rax
     74d:	c5 f8 28 c1          	vmovaps %xmm1,%xmm0
     751:	48 89 45 dc          	mov    %rax,-0x24(%rbp)
     755:	c5 fa 11 45 e4       	vmovss %xmm0,-0x1c(%rbp)
     75a:	48 8d 45 dc          	lea    -0x24(%rbp),%rax
     75e:	48 89 c7             	mov    %rax,%rdi
     761:	e8 00 00 00 00       	callq  766 <_Z9write_bmpRSoRK6Screen+0x4bc>
     766:	c5 fa 5a c0          	vcvtss2sd %xmm0,%xmm0,%xmm0
     76a:	c5 fb 10 0d 00 00 00 	vmovsd 0x0(%rip),%xmm1        # 772 <_Z9write_bmpRSoRK6Screen+0x4c8>
     771:	00 
     772:	c5 fb 59 c1          	vmulsd %xmm1,%xmm0,%xmm0
     776:	c5 fb 2c c0          	vcvttsd2si %xmm0,%eax
     77a:	0f be d0             	movsbl %al,%edx
     77d:	48 8b 45 a8          	mov    -0x58(%rbp),%rax
     781:	89 d6                	mov    %edx,%esi
     783:	48 89 c7             	mov    %rax,%rdi
     786:	e8 00 00 00 00       	callq  78b <_Z9write_bmpRSoRK6Screen+0x4e1>
      out.put( ((unsigned short) (screen.getPixel(x, screen.getHeight() - 1 - y).getGreen() * 255.0) ) & 0xFF );
     78b:	48 8b 45 a0          	mov    -0x60(%rbp),%rax
     78f:	48 89 c7             	mov    %rax,%rdi
     792:	e8 00 00 00 00       	callq  797 <_Z9write_bmpRSoRK6Screen+0x4ed>
     797:	48 2b 45 b8          	sub    -0x48(%rbp),%rax
     79b:	48 8d 50 ff          	lea    -0x1(%rax),%rdx
     79f:	48 8b 4d c0          	mov    -0x40(%rbp),%rcx
     7a3:	48 8b 45 a0          	mov    -0x60(%rbp),%rax
     7a7:	48 89 ce             	mov    %rcx,%rsi
     7aa:	48 89 c7             	mov    %rax,%rdi
     7ad:	e8 00 00 00 00       	callq  7b2 <_Z9write_bmpRSoRK6Screen+0x508>
     7b2:	c4 e1 f9 7e c0       	vmovq  %xmm0,%rax
     7b7:	c5 f8 28 c1          	vmovaps %xmm1,%xmm0
     7bb:	48 89 45 dc          	mov    %rax,-0x24(%rbp)
     7bf:	c5 fa 11 45 e4       	vmovss %xmm0,-0x1c(%rbp)
     7c4:	48 8d 45 dc          	lea    -0x24(%rbp),%rax
     7c8:	48 89 c7             	mov    %rax,%rdi
     7cb:	e8 00 00 00 00       	callq  7d0 <_Z9write_bmpRSoRK6Screen+0x526>
     7d0:	c5 fa 5a c0          	vcvtss2sd %xmm0,%xmm0,%xmm0
     7d4:	c5 fb 10 0d 00 00 00 	vmovsd 0x0(%rip),%xmm1        # 7dc <_Z9write_bmpRSoRK6Screen+0x532>
     7db:	00 
     7dc:	c5 fb 59 c1          	vmulsd %xmm1,%xmm0,%xmm0
     7e0:	c5 fb 2c c0          	vcvttsd2si %xmm0,%eax
     7e4:	0f be d0             	movsbl %al,%edx
     7e7:	48 8b 45 a8          	mov    -0x58(%rbp),%rax
     7eb:	89 d6                	mov    %edx,%esi
     7ed:	48 89 c7             	mov    %rax,%rdi
     7f0:	e8 00 00 00 00       	callq  7f5 <_Z9write_bmpRSoRK6Screen+0x54b>
      out.put( ((unsigned short) (screen.getPixel(x, screen.getHeight() - 1 - y).getBlue() * 255.0) ) & 0xFF );
     7f5:	48 8b 45 a0          	mov    -0x60(%rbp),%rax
     7f9:	48 89 c7             	mov    %rax,%rdi
     7fc:	e8 00 00 00 00       	callq  801 <_Z9write_bmpRSoRK6Screen+0x557>
     801:	48 2b 45 b8          	sub    -0x48(%rbp),%rax
     805:	48 8d 50 ff          	lea    -0x1(%rax),%rdx
     809:	48 8b 4d c0          	mov    -0x40(%rbp),%rcx
     80d:	48 8b 45 a0          	mov    -0x60(%rbp),%rax
     811:	48 89 ce             	mov    %rcx,%rsi
     814:	48 89 c7             	mov    %rax,%rdi
     817:	e8 00 00 00 00       	callq  81c <_Z9write_bmpRSoRK6Screen+0x572>
     81c:	c4 e1 f9 7e c0       	vmovq  %xmm0,%rax
     821:	c5 f8 28 c1          	vmovaps %xmm1,%xmm0
     825:	48 89 45 dc          	mov    %rax,-0x24(%rbp)
     829:	c5 fa 11 45 e4       	vmovss %xmm0,-0x1c(%rbp)
     82e:	48 8d 45 dc          	lea    -0x24(%rbp),%rax
     832:	48 89 c7             	mov    %rax,%rdi
     835:	e8 00 00 00 00       	callq  83a <_Z9write_bmpRSoRK6Screen+0x590>
     83a:	c5 fa 5a c0          	vcvtss2sd %xmm0,%xmm0,%xmm0
     83e:	c5 fb 10 0d 00 00 00 	vmovsd 0x0(%rip),%xmm1        # 846 <_Z9write_bmpRSoRK6Screen+0x59c>
     845:	00 
     846:	c5 fb 59 c1          	vmulsd %xmm1,%xmm0,%xmm0
     84a:	c5 fb 2c c0          	vcvttsd2si %xmm0,%eax
     84e:	0f be d0             	movsbl %al,%edx
     851:	48 8b 45 a8          	mov    -0x58(%rbp),%rax
     855:	89 d6                	mov    %edx,%esi
     857:	48 89 c7             	mov    %rax,%rdi
     85a:	e8 00 00 00 00       	callq  85f <_Z9write_bmpRSoRK6Screen+0x5b5>
    for (size_t x = 0u; x < screen.getWidth(); x++) {
     85f:	48 83 45 c0 01       	addq   $0x1,-0x40(%rbp)
     864:	e9 9d fe ff ff       	jmpq   706 <_Z9write_bmpRSoRK6Screen+0x45c>
    }
    for (size_t padding_bytes = 0u; padding_bytes < screen.getWidth() % 4; padding_bytes++) {
     869:	48 c7 45 c8 00 00 00 	movq   $0x0,-0x38(%rbp)
     870:	00 
     871:	48 8b 45 a0          	mov    -0x60(%rbp),%rax
     875:	48 89 c7             	mov    %rax,%rdi
     878:	e8 00 00 00 00       	callq  87d <_Z9write_bmpRSoRK6Screen+0x5d3>
     87d:	83 e0 03             	and    $0x3,%eax
     880:	48 39 45 c8          	cmp    %rax,-0x38(%rbp)
     884:	0f 92 c0             	setb   %al
     887:	84 c0                	test   %al,%al
     889:	74 18                	je     8a3 <_Z9write_bmpRSoRK6Screen+0x5f9>
      out.put( 0x00 );
     88b:	48 8b 45 a8          	mov    -0x58(%rbp),%rax
     88f:	be 00 00 00 00       	mov    $0x0,%esi
     894:	48 89 c7             	mov    %rax,%rdi
     897:	e8 00 00 00 00       	callq  89c <_Z9write_bmpRSoRK6Screen+0x5f2>
    for (size_t padding_bytes = 0u; padding_bytes < screen.getWidth() % 4; padding_bytes++) {
     89c:	48 83 45 c8 01       	addq   $0x1,-0x38(%rbp)
     8a1:	eb ce                	jmp    871 <_Z9write_bmpRSoRK6Screen+0x5c7>
  for (size_t y = 0u; y < screen.getHeight(); y++ ) {
     8a3:	48 83 45 b8 01       	addq   $0x1,-0x48(%rbp)
     8a8:	e9 36 fe ff ff       	jmpq   6e3 <_Z9write_bmpRSoRK6Screen+0x439>
    }
  } 
}
     8ad:	90                   	nop
     8ae:	48 8b 45 e8          	mov    -0x18(%rbp),%rax
     8b2:	64 48 33 04 25 28 00 	xor    %fs:0x28,%rax
     8b9:	00 00 
     8bb:	74 05                	je     8c2 <_Z9write_bmpRSoRK6Screen+0x618>
     8bd:	e8 00 00 00 00       	callq  8c2 <_Z9write_bmpRSoRK6Screen+0x618>
     8c2:	48 83 c4 58          	add    $0x58,%rsp
     8c6:	5b                   	pop    %rbx
     8c7:	5d                   	pop    %rbp
     8c8:	c3                   	retq   

00000000000008c9 <_Z14read_wavefrontRSt14basic_ifstreamIcSt11char_traitsIcEER5Scene>:

// Reads in 3d scene from Wavefront.obj
// only triangles are read in, no polygones, no normals
// only lines starting with v (vertexes) and f (faces) are read in
// other lines are ignored
void read_wavefront(std::ifstream & in, Scene & scene) {
     8c9:	55                   	push   %rbp
     8ca:	48 89 e5             	mov    %rsp,%rbp
     8cd:	41 57                	push   %r15
     8cf:	41 56                	push   %r14
     8d1:	41 55                	push   %r13
     8d3:	41 54                	push   %r12
     8d5:	53                   	push   %rbx
     8d6:	48 81 ec 38 01 00 00 	sub    $0x138,%rsp
     8dd:	48 89 bd d8 fe ff ff 	mov    %rdi,-0x128(%rbp)
     8e4:	48 89 b5 d0 fe ff ff 	mov    %rsi,-0x130(%rbp)
     8eb:	64 48 8b 04 25 28 00 	mov    %fs:0x28,%rax
     8f2:	00 00 
     8f4:	48 89 45 c8          	mov    %rax,-0x38(%rbp)
     8f8:	31 c0                	xor    %eax,%eax
  std::vector< Vector<FLOAT, 3> > vertices;
     8fa:	48 8d 85 20 ff ff ff 	lea    -0xe0(%rbp),%rax
     901:	48 89 c7             	mov    %rax,%rdi
     904:	e8 00 00 00 00       	callq  909 <_Z14read_wavefrontRSt14basic_ifstreamIcSt11char_traitsIcEER5Scene+0x40>
  std::vector< Vector<FLOAT, 3> > normals;
     909:	48 8d 85 40 ff ff ff 	lea    -0xc0(%rbp),%rax
     910:	48 89 c7             	mov    %rax,%rdi
     913:	e8 00 00 00 00       	callq  918 <_Z14read_wavefrontRSt14basic_ifstreamIcSt11char_traitsIcEER5Scene+0x4f>
  size_t no_of_triangles = 0u;
     918:	48 c7 85 18 ff ff ff 	movq   $0x0,-0xe8(%rbp)
     91f:	00 00 00 00 
  Vector<FLOAT, 3> vertice;
     923:	48 8d 85 5c ff ff ff 	lea    -0xa4(%rbp),%rax
     92a:	48 89 c7             	mov    %rax,%rdi
     92d:	e8 00 00 00 00       	callq  932 <_Z14read_wavefrontRSt14basic_ifstreamIcSt11char_traitsIcEER5Scene+0x69>
  Vector<FLOAT, 3> normal;
     932:	48 8d 85 68 ff ff ff 	lea    -0x98(%rbp),%rax
     939:	48 89 c7             	mov    %rax,%rdi
     93c:	e8 00 00 00 00       	callq  941 <_Z14read_wavefrontRSt14basic_ifstreamIcSt11char_traitsIcEER5Scene+0x78>
  char c;
  while (in >> c) {
     941:	48 8b 85 d8 fe ff ff 	mov    -0x128(%rbp),%rax
     948:	48 8d 95 e7 fe ff ff 	lea    -0x119(%rbp),%rdx
     94f:	48 89 d6             	mov    %rdx,%rsi
     952:	48 89 c7             	mov    %rax,%rdi
     955:	e8 00 00 00 00       	callq  95a <_Z14read_wavefrontRSt14basic_ifstreamIcSt11char_traitsIcEER5Scene+0x91>
     95a:	48 8b 10             	mov    (%rax),%rdx
     95d:	48 83 ea 18          	sub    $0x18,%rdx
     961:	48 8b 12             	mov    (%rdx),%rdx
     964:	48 01 d0             	add    %rdx,%rax
     967:	48 89 c7             	mov    %rax,%rdi
     96a:	e8 00 00 00 00       	callq  96f <_Z14read_wavefrontRSt14basic_ifstreamIcSt11char_traitsIcEER5Scene+0xa6>
     96f:	84 c0                	test   %al,%al
     971:	0f 84 77 07 00 00    	je     10ee <_Z14read_wavefrontRSt14basic_ifstreamIcSt11char_traitsIcEER5Scene+0x825>
    if (c == 'v' && in.peek() == ' ') {
     977:	0f b6 85 e7 fe ff ff 	movzbl -0x119(%rbp),%eax
     97e:	3c 76                	cmp    $0x76,%al
     980:	75 1b                	jne    99d <_Z14read_wavefrontRSt14basic_ifstreamIcSt11char_traitsIcEER5Scene+0xd4>
     982:	48 8b 85 d8 fe ff ff 	mov    -0x128(%rbp),%rax
     989:	48 89 c7             	mov    %rax,%rdi
     98c:	e8 00 00 00 00       	callq  991 <_Z14read_wavefrontRSt14basic_ifstreamIcSt11char_traitsIcEER5Scene+0xc8>
     991:	83 f8 20             	cmp    $0x20,%eax
     994:	75 07                	jne    99d <_Z14read_wavefrontRSt14basic_ifstreamIcSt11char_traitsIcEER5Scene+0xd4>
     996:	b8 01 00 00 00       	mov    $0x1,%eax
     99b:	eb 05                	jmp    9a2 <_Z14read_wavefrontRSt14basic_ifstreamIcSt11char_traitsIcEER5Scene+0xd9>
     99d:	b8 00 00 00 00       	mov    $0x0,%eax
     9a2:	84 c0                	test   %al,%al
     9a4:	0f 84 e9 00 00 00    	je     a93 <_Z14read_wavefrontRSt14basic_ifstreamIcSt11char_traitsIcEER5Scene+0x1ca>
       FLOAT x, y, z;
       in >> x;
     9aa:	48 8b 85 d8 fe ff ff 	mov    -0x128(%rbp),%rax
     9b1:	48 8d 95 00 ff ff ff 	lea    -0x100(%rbp),%rdx
     9b8:	48 89 d6             	mov    %rdx,%rsi
     9bb:	48 89 c7             	mov    %rax,%rdi
     9be:	e8 00 00 00 00       	callq  9c3 <_Z14read_wavefrontRSt14basic_ifstreamIcSt11char_traitsIcEER5Scene+0xfa>
       in >> y;
     9c3:	48 8b 85 d8 fe ff ff 	mov    -0x128(%rbp),%rax
     9ca:	48 8d 95 08 ff ff ff 	lea    -0xf8(%rbp),%rdx
     9d1:	48 89 d6             	mov    %rdx,%rsi
     9d4:	48 89 c7             	mov    %rax,%rdi
     9d7:	e8 00 00 00 00       	callq  9dc <_Z14read_wavefrontRSt14basic_ifstreamIcSt11char_traitsIcEER5Scene+0x113>
       in >> z;
     9dc:	48 8b 85 d8 fe ff ff 	mov    -0x128(%rbp),%rax
     9e3:	48 8d 95 10 ff ff ff 	lea    -0xf0(%rbp),%rdx
     9ea:	48 89 d6             	mov    %rdx,%rsi
     9ed:	48 89 c7             	mov    %rax,%rdi
     9f0:	e8 00 00 00 00       	callq  9f5 <_Z14read_wavefrontRSt14basic_ifstreamIcSt11char_traitsIcEER5Scene+0x12c>
       vertice = Vector<FLOAT, 3>( {x, y, z} );
     9f5:	c5 fa 10 85 00 ff ff 	vmovss -0x100(%rbp),%xmm0
     9fc:	ff 
     9fd:	c5 fa 11 85 74 ff ff 	vmovss %xmm0,-0x8c(%rbp)
     a04:	ff 
     a05:	c5 fa 10 85 08 ff ff 	vmovss -0xf8(%rbp),%xmm0
     a0c:	ff 
     a0d:	c5 fa 11 85 78 ff ff 	vmovss %xmm0,-0x88(%rbp)
     a14:	ff 
     a15:	c5 fa 10 85 10 ff ff 	vmovss -0xf0(%rbp),%xmm0
     a1c:	ff 
     a1d:	c5 fa 11 85 7c ff ff 	vmovss %xmm0,-0x84(%rbp)
     a24:	ff 
     a25:	48 8d 85 74 ff ff ff 	lea    -0x8c(%rbp),%rax
     a2c:	48 89 85 b0 fe ff ff 	mov    %rax,-0x150(%rbp)
     a33:	48 c7 85 b8 fe ff ff 	movq   $0x3,-0x148(%rbp)
     a3a:	03 00 00 00 
     a3e:	48 8b 85 b0 fe ff ff 	mov    -0x150(%rbp),%rax
     a45:	48 8b 95 b8 fe ff ff 	mov    -0x148(%rbp),%rdx
     a4c:	48 89 c1             	mov    %rax,%rcx
     a4f:	48 89 d3             	mov    %rdx,%rbx
     a52:	48 8d 45 80          	lea    -0x80(%rbp),%rax
     a56:	48 89 ce             	mov    %rcx,%rsi
     a59:	48 89 c7             	mov    %rax,%rdi
     a5c:	e8 00 00 00 00       	callq  a61 <_Z14read_wavefrontRSt14basic_ifstreamIcSt11char_traitsIcEER5Scene+0x198>
     a61:	48 8b 45 80          	mov    -0x80(%rbp),%rax
     a65:	48 89 85 5c ff ff ff 	mov    %rax,-0xa4(%rbp)
     a6c:	8b 45 88             	mov    -0x78(%rbp),%eax
     a6f:	89 85 64 ff ff ff    	mov    %eax,-0x9c(%rbp)
       vertices.push_back( vertice ); 
     a75:	48 8d 95 5c ff ff ff 	lea    -0xa4(%rbp),%rdx
     a7c:	48 8d 85 20 ff ff ff 	lea    -0xe0(%rbp),%rax
     a83:	48 89 d6             	mov    %rdx,%rsi
     a86:	48 89 c7             	mov    %rax,%rdi
     a89:	e8 00 00 00 00       	callq  a8e <_Z14read_wavefrontRSt14basic_ifstreamIcSt11char_traitsIcEER5Scene+0x1c5>
     a8e:	e9 3a 06 00 00       	jmpq   10cd <_Z14read_wavefrontRSt14basic_ifstreamIcSt11char_traitsIcEER5Scene+0x804>
    } else if (c == 'f' && in.peek() == ' ') {
     a93:	0f b6 85 e7 fe ff ff 	movzbl -0x119(%rbp),%eax
     a9a:	3c 66                	cmp    $0x66,%al
     a9c:	75 1b                	jne    ab9 <_Z14read_wavefrontRSt14basic_ifstreamIcSt11char_traitsIcEER5Scene+0x1f0>
     a9e:	48 8b 85 d8 fe ff ff 	mov    -0x128(%rbp),%rax
     aa5:	48 89 c7             	mov    %rax,%rdi
     aa8:	e8 00 00 00 00       	callq  aad <_Z14read_wavefrontRSt14basic_ifstreamIcSt11char_traitsIcEER5Scene+0x1e4>
     aad:	83 f8 20             	cmp    $0x20,%eax
     ab0:	75 07                	jne    ab9 <_Z14read_wavefrontRSt14basic_ifstreamIcSt11char_traitsIcEER5Scene+0x1f0>
     ab2:	b8 01 00 00 00       	mov    $0x1,%eax
     ab7:	eb 05                	jmp    abe <_Z14read_wavefrontRSt14basic_ifstreamIcSt11char_traitsIcEER5Scene+0x1f5>
     ab9:	b8 00 00 00 00       	mov    $0x0,%eax
     abe:	84 c0                	test   %al,%al
     ac0:	0f 84 ba 04 00 00    	je     f80 <_Z14read_wavefrontRSt14basic_ifstreamIcSt11char_traitsIcEER5Scene+0x6b7>

       size_t xv, yv, zv;
       size_t xn = 0, yn, zn;
     ac6:	48 c7 85 00 ff ff ff 	movq   $0x0,-0x100(%rbp)
     acd:	00 00 00 00 
       in >> xv;
     ad1:	48 8b 85 d8 fe ff ff 	mov    -0x128(%rbp),%rax
     ad8:	48 8d 95 e8 fe ff ff 	lea    -0x118(%rbp),%rdx
     adf:	48 89 d6             	mov    %rdx,%rsi
     ae2:	48 89 c7             	mov    %rax,%rdi
     ae5:	e8 00 00 00 00       	callq  aea <_Z14read_wavefrontRSt14basic_ifstreamIcSt11char_traitsIcEER5Scene+0x221>
       if (in.peek() == '/') in.ignore(); // no texture coordinates supported
     aea:	48 8b 85 d8 fe ff ff 	mov    -0x128(%rbp),%rax
     af1:	48 89 c7             	mov    %rax,%rdi
     af4:	e8 00 00 00 00       	callq  af9 <_Z14read_wavefrontRSt14basic_ifstreamIcSt11char_traitsIcEER5Scene+0x230>
     af9:	83 f8 2f             	cmp    $0x2f,%eax
     afc:	0f 94 c0             	sete   %al
     aff:	84 c0                	test   %al,%al
     b01:	74 0f                	je     b12 <_Z14read_wavefrontRSt14basic_ifstreamIcSt11char_traitsIcEER5Scene+0x249>
     b03:	48 8b 85 d8 fe ff ff 	mov    -0x128(%rbp),%rax
     b0a:	48 89 c7             	mov    %rax,%rdi
     b0d:	e8 00 00 00 00       	callq  b12 <_Z14read_wavefrontRSt14basic_ifstreamIcSt11char_traitsIcEER5Scene+0x249>
       if (in.peek() == '/') { in.ignore(); in >> xn;}
     b12:	48 8b 85 d8 fe ff ff 	mov    -0x128(%rbp),%rax
     b19:	48 89 c7             	mov    %rax,%rdi
     b1c:	e8 00 00 00 00       	callq  b21 <_Z14read_wavefrontRSt14basic_ifstreamIcSt11char_traitsIcEER5Scene+0x258>
     b21:	83 f8 2f             	cmp    $0x2f,%eax
     b24:	0f 94 c0             	sete   %al
     b27:	84 c0                	test   %al,%al
     b29:	74 28                	je     b53 <_Z14read_wavefrontRSt14basic_ifstreamIcSt11char_traitsIcEER5Scene+0x28a>
     b2b:	48 8b 85 d8 fe ff ff 	mov    -0x128(%rbp),%rax
     b32:	48 89 c7             	mov    %rax,%rdi
     b35:	e8 00 00 00 00       	callq  b3a <_Z14read_wavefrontRSt14basic_ifstreamIcSt11char_traitsIcEER5Scene+0x271>
     b3a:	48 8b 85 d8 fe ff ff 	mov    -0x128(%rbp),%rax
     b41:	48 8d 95 00 ff ff ff 	lea    -0x100(%rbp),%rdx
     b48:	48 89 d6             	mov    %rdx,%rsi
     b4b:	48 89 c7             	mov    %rax,%rdi
     b4e:	e8 00 00 00 00       	callq  b53 <_Z14read_wavefrontRSt14basic_ifstreamIcSt11char_traitsIcEER5Scene+0x28a>
       in >> yv;
     b53:	48 8b 85 d8 fe ff ff 	mov    -0x128(%rbp),%rax
     b5a:	48 8d 95 f0 fe ff ff 	lea    -0x110(%rbp),%rdx
     b61:	48 89 d6             	mov    %rdx,%rsi
     b64:	48 89 c7             	mov    %rax,%rdi
     b67:	e8 00 00 00 00       	callq  b6c <_Z14read_wavefrontRSt14basic_ifstreamIcSt11char_traitsIcEER5Scene+0x2a3>
       if (in.peek() == '/') in.ignore(); // no texture coordinates supported
     b6c:	48 8b 85 d8 fe ff ff 	mov    -0x128(%rbp),%rax
     b73:	48 89 c7             	mov    %rax,%rdi
     b76:	e8 00 00 00 00       	callq  b7b <_Z14read_wavefrontRSt14basic_ifstreamIcSt11char_traitsIcEER5Scene+0x2b2>
     b7b:	83 f8 2f             	cmp    $0x2f,%eax
     b7e:	0f 94 c0             	sete   %al
     b81:	84 c0                	test   %al,%al
     b83:	74 0f                	je     b94 <_Z14read_wavefrontRSt14basic_ifstreamIcSt11char_traitsIcEER5Scene+0x2cb>
     b85:	48 8b 85 d8 fe ff ff 	mov    -0x128(%rbp),%rax
     b8c:	48 89 c7             	mov    %rax,%rdi
     b8f:	e8 00 00 00 00       	callq  b94 <_Z14read_wavefrontRSt14basic_ifstreamIcSt11char_traitsIcEER5Scene+0x2cb>
       if (in.peek() == '/') { in.ignore(); in >> yn;}
     b94:	48 8b 85 d8 fe ff ff 	mov    -0x128(%rbp),%rax
     b9b:	48 89 c7             	mov    %rax,%rdi
     b9e:	e8 00 00 00 00       	callq  ba3 <_Z14read_wavefrontRSt14basic_ifstreamIcSt11char_traitsIcEER5Scene+0x2da>
     ba3:	83 f8 2f             	cmp    $0x2f,%eax
     ba6:	0f 94 c0             	sete   %al
     ba9:	84 c0                	test   %al,%al
     bab:	74 28                	je     bd5 <_Z14read_wavefrontRSt14basic_ifstreamIcSt11char_traitsIcEER5Scene+0x30c>
     bad:	48 8b 85 d8 fe ff ff 	mov    -0x128(%rbp),%rax
     bb4:	48 89 c7             	mov    %rax,%rdi
     bb7:	e8 00 00 00 00       	callq  bbc <_Z14read_wavefrontRSt14basic_ifstreamIcSt11char_traitsIcEER5Scene+0x2f3>
     bbc:	48 8b 85 d8 fe ff ff 	mov    -0x128(%rbp),%rax
     bc3:	48 8d 95 08 ff ff ff 	lea    -0xf8(%rbp),%rdx
     bca:	48 89 d6             	mov    %rdx,%rsi
     bcd:	48 89 c7             	mov    %rax,%rdi
     bd0:	e8 00 00 00 00       	callq  bd5 <_Z14read_wavefrontRSt14basic_ifstreamIcSt11char_traitsIcEER5Scene+0x30c>
       in >> zv;
     bd5:	48 8b 85 d8 fe ff ff 	mov    -0x128(%rbp),%rax
     bdc:	48 8d 95 f8 fe ff ff 	lea    -0x108(%rbp),%rdx
     be3:	48 89 d6             	mov    %rdx,%rsi
     be6:	48 89 c7             	mov    %rax,%rdi
     be9:	e8 00 00 00 00       	callq  bee <_Z14read_wavefrontRSt14basic_ifstreamIcSt11char_traitsIcEER5Scene+0x325>
       if (in.peek() == '/') in.ignore(); // no texture coordinates supported
     bee:	48 8b 85 d8 fe ff ff 	mov    -0x128(%rbp),%rax
     bf5:	48 89 c7             	mov    %rax,%rdi
     bf8:	e8 00 00 00 00       	callq  bfd <_Z14read_wavefrontRSt14basic_ifstreamIcSt11char_traitsIcEER5Scene+0x334>
     bfd:	83 f8 2f             	cmp    $0x2f,%eax
     c00:	0f 94 c0             	sete   %al
     c03:	84 c0                	test   %al,%al
     c05:	74 0f                	je     c16 <_Z14read_wavefrontRSt14basic_ifstreamIcSt11char_traitsIcEER5Scene+0x34d>
     c07:	48 8b 85 d8 fe ff ff 	mov    -0x128(%rbp),%rax
     c0e:	48 89 c7             	mov    %rax,%rdi
     c11:	e8 00 00 00 00       	callq  c16 <_Z14read_wavefrontRSt14basic_ifstreamIcSt11char_traitsIcEER5Scene+0x34d>
       if (in.peek() == '/') { in.ignore(); in >> zn;}
     c16:	48 8b 85 d8 fe ff ff 	mov    -0x128(%rbp),%rax
     c1d:	48 89 c7             	mov    %rax,%rdi
     c20:	e8 00 00 00 00       	callq  c25 <_Z14read_wavefrontRSt14basic_ifstreamIcSt11char_traitsIcEER5Scene+0x35c>
     c25:	83 f8 2f             	cmp    $0x2f,%eax
     c28:	0f 94 c0             	sete   %al
     c2b:	84 c0                	test   %al,%al
     c2d:	74 28                	je     c57 <_Z14read_wavefrontRSt14basic_ifstreamIcSt11char_traitsIcEER5Scene+0x38e>
     c2f:	48 8b 85 d8 fe ff ff 	mov    -0x128(%rbp),%rax
     c36:	48 89 c7             	mov    %rax,%rdi
     c39:	e8 00 00 00 00       	callq  c3e <_Z14read_wavefrontRSt14basic_ifstreamIcSt11char_traitsIcEER5Scene+0x375>
     c3e:	48 8b 85 d8 fe ff ff 	mov    -0x128(%rbp),%rax
     c45:	48 8d 95 10 ff ff ff 	lea    -0xf0(%rbp),%rdx
     c4c:	48 89 d6             	mov    %rdx,%rsi
     c4f:	48 89 c7             	mov    %rax,%rdi
     c52:	e8 00 00 00 00       	callq  c57 <_Z14read_wavefrontRSt14basic_ifstreamIcSt11char_traitsIcEER5Scene+0x38e>
       
       if (reverse_vertice_order) {
     c57:	0f b6 05 00 00 00 00 	movzbl 0x0(%rip),%eax        # c5e <_Z14read_wavefrontRSt14basic_ifstreamIcSt11char_traitsIcEER5Scene+0x395>
     c5e:	84 c0                	test   %al,%al
     c60:	74 32                	je     c94 <_Z14read_wavefrontRSt14basic_ifstreamIcSt11char_traitsIcEER5Scene+0x3cb>
         std::swap(yv, zv);
     c62:	48 8d 95 f8 fe ff ff 	lea    -0x108(%rbp),%rdx
     c69:	48 8d 85 f0 fe ff ff 	lea    -0x110(%rbp),%rax
     c70:	48 89 d6             	mov    %rdx,%rsi
     c73:	48 89 c7             	mov    %rax,%rdi
     c76:	e8 00 00 00 00       	callq  c7b <_Z14read_wavefrontRSt14basic_ifstreamIcSt11char_traitsIcEER5Scene+0x3b2>
         std::swap(yn, zn);
     c7b:	48 8d 95 10 ff ff ff 	lea    -0xf0(%rbp),%rdx
     c82:	48 8d 85 08 ff ff ff 	lea    -0xf8(%rbp),%rax
     c89:	48 89 d6             	mov    %rdx,%rsi
     c8c:	48 89 c7             	mov    %rax,%rdi
     c8f:	e8 00 00 00 00       	callq  c94 <_Z14read_wavefrontRSt14basic_ifstreamIcSt11char_traitsIcEER5Scene+0x3cb>
       }
       if (xn == 0) { // no normals 
     c94:	48 8b 85 00 ff ff ff 	mov    -0x100(%rbp),%rax
     c9b:	48 85 c0             	test   %rax,%rax
     c9e:	0f 85 10 01 00 00    	jne    db4 <_Z14read_wavefrontRSt14basic_ifstreamIcSt11char_traitsIcEER5Scene+0x4eb>
         scene.add(Triangle<FLOAT> ( {vertices[xv - 1], vertices[yv - 1], vertices[zv - 1]} ));
     ca4:	48 8b 85 e8 fe ff ff 	mov    -0x118(%rbp),%rax
     cab:	48 8d 50 ff          	lea    -0x1(%rax),%rdx
     caf:	48 8d 85 20 ff ff ff 	lea    -0xe0(%rbp),%rax
     cb6:	48 89 d6             	mov    %rdx,%rsi
     cb9:	48 89 c7             	mov    %rax,%rdi
     cbc:	e8 00 00 00 00       	callq  cc1 <_Z14read_wavefrontRSt14basic_ifstreamIcSt11char_traitsIcEER5Scene+0x3f8>
     cc1:	48 89 c3             	mov    %rax,%rbx
     cc4:	48 8b 85 f0 fe ff ff 	mov    -0x110(%rbp),%rax
     ccb:	48 8d 50 ff          	lea    -0x1(%rax),%rdx
     ccf:	48 8d 85 20 ff ff ff 	lea    -0xe0(%rbp),%rax
     cd6:	48 89 d6             	mov    %rdx,%rsi
     cd9:	48 89 c7             	mov    %rax,%rdi
     cdc:	e8 00 00 00 00       	callq  ce1 <_Z14read_wavefrontRSt14basic_ifstreamIcSt11char_traitsIcEER5Scene+0x418>
     ce1:	49 89 c4             	mov    %rax,%r12
     ce4:	48 8b 85 f8 fe ff ff 	mov    -0x108(%rbp),%rax
     ceb:	48 8d 50 ff          	lea    -0x1(%rax),%rdx
     cef:	48 8d 85 20 ff ff ff 	lea    -0xe0(%rbp),%rax
     cf6:	48 89 d6             	mov    %rdx,%rsi
     cf9:	48 89 c7             	mov    %rax,%rdi
     cfc:	e8 00 00 00 00       	callq  d01 <_Z14read_wavefrontRSt14basic_ifstreamIcSt11char_traitsIcEER5Scene+0x438>
     d01:	4c 8b 08             	mov    (%rax),%r9
     d04:	44 8b 40 08          	mov    0x8(%rax),%r8d
     d08:	49 8b 3c 24          	mov    (%r12),%rdi
     d0c:	41 8b 74 24 08       	mov    0x8(%r12),%esi
     d11:	48 8b 0b             	mov    (%rbx),%rcx
     d14:	8b 53 08             	mov    0x8(%rbx),%edx
     d17:	48 8d 45 80          	lea    -0x80(%rbp),%rax
     d1b:	4c 89 8d a8 fe ff ff 	mov    %r9,-0x158(%rbp)
     d22:	c5 fa 7e a5 a8 fe ff 	vmovq  -0x158(%rbp),%xmm4
     d29:	ff 
     d2a:	4c 89 85 a8 fe ff ff 	mov    %r8,-0x158(%rbp)
     d31:	c5 fa 7e ad a8 fe ff 	vmovq  -0x158(%rbp),%xmm5
     d38:	ff 
     d39:	48 89 bd a8 fe ff ff 	mov    %rdi,-0x158(%rbp)
     d40:	c5 fa 7e 95 a8 fe ff 	vmovq  -0x158(%rbp),%xmm2
     d47:	ff 
     d48:	48 89 b5 a8 fe ff ff 	mov    %rsi,-0x158(%rbp)
     d4f:	c5 fa 7e 9d a8 fe ff 	vmovq  -0x158(%rbp),%xmm3
     d56:	ff 
     d57:	48 89 8d a8 fe ff ff 	mov    %rcx,-0x158(%rbp)
     d5e:	c5 fa 7e 85 a8 fe ff 	vmovq  -0x158(%rbp),%xmm0
     d65:	ff 
     d66:	48 89 95 a8 fe ff ff 	mov    %rdx,-0x158(%rbp)
     d6d:	c5 fa 7e 8d a8 fe ff 	vmovq  -0x158(%rbp),%xmm1
     d74:	ff 
     d75:	48 89 c7             	mov    %rax,%rdi
     d78:	e8 00 00 00 00       	callq  d7d <_Z14read_wavefrontRSt14basic_ifstreamIcSt11char_traitsIcEER5Scene+0x4b4>
     d7d:	48 8b 85 d0 fe ff ff 	mov    -0x130(%rbp),%rax
     d84:	48 83 ec 08          	sub    $0x8,%rsp
     d88:	ff 75 c0             	pushq  -0x40(%rbp)
     d8b:	ff 75 b8             	pushq  -0x48(%rbp)
     d8e:	ff 75 b0             	pushq  -0x50(%rbp)
     d91:	ff 75 a8             	pushq  -0x58(%rbp)
     d94:	ff 75 a0             	pushq  -0x60(%rbp)
     d97:	ff 75 98             	pushq  -0x68(%rbp)
     d9a:	ff 75 90             	pushq  -0x70(%rbp)
     d9d:	ff 75 88             	pushq  -0x78(%rbp)
     da0:	ff 75 80             	pushq  -0x80(%rbp)
     da3:	48 89 c7             	mov    %rax,%rdi
     da6:	e8 00 00 00 00       	callq  dab <_Z14read_wavefrontRSt14basic_ifstreamIcSt11char_traitsIcEER5Scene+0x4e2>
     dab:	48 83 c4 50          	add    $0x50,%rsp
     daf:	e9 bf 01 00 00       	jmpq   f73 <_Z14read_wavefrontRSt14basic_ifstreamIcSt11char_traitsIcEER5Scene+0x6aa>
       } else {
         scene.add(Triangle<FLOAT> ( {vertices[xv - 1], vertices[yv - 1], vertices[zv - 1], normals[xn - 1], normals[yn - 1], normals[zn - 1]} ));
     db4:	48 8b 85 e8 fe ff ff 	mov    -0x118(%rbp),%rax
     dbb:	48 8d 50 ff          	lea    -0x1(%rax),%rdx
     dbf:	48 8d 85 20 ff ff ff 	lea    -0xe0(%rbp),%rax
     dc6:	48 89 d6             	mov    %rdx,%rsi
     dc9:	48 89 c7             	mov    %rax,%rdi
     dcc:	e8 00 00 00 00       	callq  dd1 <_Z14read_wavefrontRSt14basic_ifstreamIcSt11char_traitsIcEER5Scene+0x508>
     dd1:	48 89 c3             	mov    %rax,%rbx
     dd4:	48 8b 85 f0 fe ff ff 	mov    -0x110(%rbp),%rax
     ddb:	48 8d 50 ff          	lea    -0x1(%rax),%rdx
     ddf:	48 8d 85 20 ff ff ff 	lea    -0xe0(%rbp),%rax
     de6:	48 89 d6             	mov    %rdx,%rsi
     de9:	48 89 c7             	mov    %rax,%rdi
     dec:	e8 00 00 00 00       	callq  df1 <_Z14read_wavefrontRSt14basic_ifstreamIcSt11char_traitsIcEER5Scene+0x528>
     df1:	49 89 c4             	mov    %rax,%r12
     df4:	48 8b 85 f8 fe ff ff 	mov    -0x108(%rbp),%rax
     dfb:	48 8d 50 ff          	lea    -0x1(%rax),%rdx
     dff:	48 8d 85 20 ff ff ff 	lea    -0xe0(%rbp),%rax
     e06:	48 89 d6             	mov    %rdx,%rsi
     e09:	48 89 c7             	mov    %rax,%rdi
     e0c:	e8 00 00 00 00       	callq  e11 <_Z14read_wavefrontRSt14basic_ifstreamIcSt11char_traitsIcEER5Scene+0x548>
     e11:	49 89 c5             	mov    %rax,%r13
     e14:	48 8b 85 00 ff ff ff 	mov    -0x100(%rbp),%rax
     e1b:	48 8d 50 ff          	lea    -0x1(%rax),%rdx
     e1f:	48 8d 85 40 ff ff ff 	lea    -0xc0(%rbp),%rax
     e26:	48 89 d6             	mov    %rdx,%rsi
     e29:	48 89 c7             	mov    %rax,%rdi
     e2c:	e8 00 00 00 00       	callq  e31 <_Z14read_wavefrontRSt14basic_ifstreamIcSt11char_traitsIcEER5Scene+0x568>
     e31:	49 89 c6             	mov    %rax,%r14
     e34:	48 8b 85 08 ff ff ff 	mov    -0xf8(%rbp),%rax
     e3b:	48 8d 50 ff          	lea    -0x1(%rax),%rdx
     e3f:	48 8d 85 40 ff ff ff 	lea    -0xc0(%rbp),%rax
     e46:	48 89 d6             	mov    %rdx,%rsi
     e49:	48 89 c7             	mov    %rax,%rdi
     e4c:	e8 00 00 00 00       	callq  e51 <_Z14read_wavefrontRSt14basic_ifstreamIcSt11char_traitsIcEER5Scene+0x588>
     e51:	49 89 c7             	mov    %rax,%r15
     e54:	48 8b 85 10 ff ff ff 	mov    -0xf0(%rbp),%rax
     e5b:	48 8d 50 ff          	lea    -0x1(%rax),%rdx
     e5f:	48 8d 85 40 ff ff ff 	lea    -0xc0(%rbp),%rax
     e66:	48 89 d6             	mov    %rdx,%rsi
     e69:	48 89 c7             	mov    %rax,%rdi
     e6c:	e8 00 00 00 00       	callq  e71 <_Z14read_wavefrontRSt14basic_ifstreamIcSt11char_traitsIcEER5Scene+0x5a8>
     e71:	48 89 c1             	mov    %rax,%rcx
     e74:	49 8b 06             	mov    (%r14),%rax
     e77:	48 89 85 a8 fe ff ff 	mov    %rax,-0x158(%rbp)
     e7e:	41 8b 46 08          	mov    0x8(%r14),%eax
     e82:	48 89 85 a0 fe ff ff 	mov    %rax,-0x160(%rbp)
     e89:	4d 8b 75 00          	mov    0x0(%r13),%r14
     e8d:	45 8b 5d 08          	mov    0x8(%r13),%r11d
     e91:	4d 8b 14 24          	mov    (%r12),%r10
     e95:	45 8b 4c 24 08       	mov    0x8(%r12),%r9d
     e9a:	4c 8b 03             	mov    (%rbx),%r8
     e9d:	8b 7b 08             	mov    0x8(%rbx),%edi
     ea0:	48 8d 75 80          	lea    -0x80(%rbp),%rsi
     ea4:	48 83 ec 10          	sub    $0x10,%rsp
     ea8:	48 89 e2             	mov    %rsp,%rdx
     eab:	48 8b 01             	mov    (%rcx),%rax
     eae:	48 89 02             	mov    %rax,(%rdx)
     eb1:	8b 41 08             	mov    0x8(%rcx),%eax
     eb4:	89 42 08             	mov    %eax,0x8(%rdx)
     eb7:	48 83 ec 10          	sub    $0x10,%rsp
     ebb:	48 89 e2             	mov    %rsp,%rdx
     ebe:	49 8b 07             	mov    (%r15),%rax
     ec1:	48 89 02             	mov    %rax,(%rdx)
     ec4:	41 8b 47 08          	mov    0x8(%r15),%eax
     ec8:	89 42 08             	mov    %eax,0x8(%rdx)
     ecb:	c5 fa 7e b5 a8 fe ff 	vmovq  -0x158(%rbp),%xmm6
     ed2:	ff 
     ed3:	c5 fa 7e bd a0 fe ff 	vmovq  -0x160(%rbp),%xmm7
     eda:	ff 
     edb:	4c 89 b5 a8 fe ff ff 	mov    %r14,-0x158(%rbp)
     ee2:	c5 fa 7e a5 a8 fe ff 	vmovq  -0x158(%rbp),%xmm4
     ee9:	ff 
     eea:	4c 89 9d a8 fe ff ff 	mov    %r11,-0x158(%rbp)
     ef1:	c5 fa 7e ad a8 fe ff 	vmovq  -0x158(%rbp),%xmm5
     ef8:	ff 
     ef9:	4c 89 95 a8 fe ff ff 	mov    %r10,-0x158(%rbp)
     f00:	c5 fa 7e 95 a8 fe ff 	vmovq  -0x158(%rbp),%xmm2
     f07:	ff 
     f08:	4c 89 8d a8 fe ff ff 	mov    %r9,-0x158(%rbp)
     f0f:	c5 fa 7e 9d a8 fe ff 	vmovq  -0x158(%rbp),%xmm3
     f16:	ff 
     f17:	4c 89 85 a8 fe ff ff 	mov    %r8,-0x158(%rbp)
     f1e:	c5 fa 7e 85 a8 fe ff 	vmovq  -0x158(%rbp),%xmm0
     f25:	ff 
     f26:	48 89 bd a8 fe ff ff 	mov    %rdi,-0x158(%rbp)
     f2d:	c5 fa 7e 8d a8 fe ff 	vmovq  -0x158(%rbp),%xmm1
     f34:	ff 
     f35:	48 89 f7             	mov    %rsi,%rdi
     f38:	e8 00 00 00 00       	callq  f3d <_Z14read_wavefrontRSt14basic_ifstreamIcSt11char_traitsIcEER5Scene+0x674>
     f3d:	48 83 c4 20          	add    $0x20,%rsp
     f41:	48 8b 85 d0 fe ff ff 	mov    -0x130(%rbp),%rax
     f48:	48 83 ec 08          	sub    $0x8,%rsp
     f4c:	ff 75 c0             	pushq  -0x40(%rbp)
     f4f:	ff 75 b8             	pushq  -0x48(%rbp)
     f52:	ff 75 b0             	pushq  -0x50(%rbp)
     f55:	ff 75 a8             	pushq  -0x58(%rbp)
     f58:	ff 75 a0             	pushq  -0x60(%rbp)
     f5b:	ff 75 98             	pushq  -0x68(%rbp)
     f5e:	ff 75 90             	pushq  -0x70(%rbp)
     f61:	ff 75 88             	pushq  -0x78(%rbp)
     f64:	ff 75 80             	pushq  -0x80(%rbp)
     f67:	48 89 c7             	mov    %rax,%rdi
     f6a:	e8 00 00 00 00       	callq  f6f <_Z14read_wavefrontRSt14basic_ifstreamIcSt11char_traitsIcEER5Scene+0x6a6>
     f6f:	48 83 c4 50          	add    $0x50,%rsp
       }
       no_of_triangles++;
     f73:	48 83 85 18 ff ff ff 	addq   $0x1,-0xe8(%rbp)
     f7a:	01 
     f7b:	e9 4d 01 00 00       	jmpq   10cd <_Z14read_wavefrontRSt14basic_ifstreamIcSt11char_traitsIcEER5Scene+0x804>
    } else if (c == 'v' && in.peek() == 'n') {
     f80:	0f b6 85 e7 fe ff ff 	movzbl -0x119(%rbp),%eax
     f87:	3c 76                	cmp    $0x76,%al
     f89:	75 1b                	jne    fa6 <_Z14read_wavefrontRSt14basic_ifstreamIcSt11char_traitsIcEER5Scene+0x6dd>
     f8b:	48 8b 85 d8 fe ff ff 	mov    -0x128(%rbp),%rax
     f92:	48 89 c7             	mov    %rax,%rdi
     f95:	e8 00 00 00 00       	callq  f9a <_Z14read_wavefrontRSt14basic_ifstreamIcSt11char_traitsIcEER5Scene+0x6d1>
     f9a:	83 f8 6e             	cmp    $0x6e,%eax
     f9d:	75 07                	jne    fa6 <_Z14read_wavefrontRSt14basic_ifstreamIcSt11char_traitsIcEER5Scene+0x6dd>
     f9f:	b8 01 00 00 00       	mov    $0x1,%eax
     fa4:	eb 05                	jmp    fab <_Z14read_wavefrontRSt14basic_ifstreamIcSt11char_traitsIcEER5Scene+0x6e2>
     fa6:	b8 00 00 00 00       	mov    $0x0,%eax
     fab:	84 c0                	test   %al,%al
     fad:	0f 84 1a 01 00 00    	je     10cd <_Z14read_wavefrontRSt14basic_ifstreamIcSt11char_traitsIcEER5Scene+0x804>
       in >> c;
     fb3:	48 8b 85 d8 fe ff ff 	mov    -0x128(%rbp),%rax
     fba:	48 8d 95 e7 fe ff ff 	lea    -0x119(%rbp),%rdx
     fc1:	48 89 d6             	mov    %rdx,%rsi
     fc4:	48 89 c7             	mov    %rax,%rdi
     fc7:	e8 00 00 00 00       	callq  fcc <_Z14read_wavefrontRSt14basic_ifstreamIcSt11char_traitsIcEER5Scene+0x703>
       if ( in.peek() == ' ' ) {
     fcc:	48 8b 85 d8 fe ff ff 	mov    -0x128(%rbp),%rax
     fd3:	48 89 c7             	mov    %rax,%rdi
     fd6:	e8 00 00 00 00       	callq  fdb <_Z14read_wavefrontRSt14basic_ifstreamIcSt11char_traitsIcEER5Scene+0x712>
     fdb:	83 f8 20             	cmp    $0x20,%eax
     fde:	0f 94 c0             	sete   %al
     fe1:	84 c0                	test   %al,%al
     fe3:	0f 84 e4 00 00 00    	je     10cd <_Z14read_wavefrontRSt14basic_ifstreamIcSt11char_traitsIcEER5Scene+0x804>
         FLOAT nx, ny, nz;
         in >> nx;
     fe9:	48 8b 85 d8 fe ff ff 	mov    -0x128(%rbp),%rax
     ff0:	48 8d 95 00 ff ff ff 	lea    -0x100(%rbp),%rdx
     ff7:	48 89 d6             	mov    %rdx,%rsi
     ffa:	48 89 c7             	mov    %rax,%rdi
     ffd:	e8 00 00 00 00       	callq  1002 <_Z14read_wavefrontRSt14basic_ifstreamIcSt11char_traitsIcEER5Scene+0x739>
         in >> ny;
    1002:	48 8b 85 d8 fe ff ff 	mov    -0x128(%rbp),%rax
    1009:	48 8d 95 08 ff ff ff 	lea    -0xf8(%rbp),%rdx
    1010:	48 89 d6             	mov    %rdx,%rsi
    1013:	48 89 c7             	mov    %rax,%rdi
    1016:	e8 00 00 00 00       	callq  101b <_Z14read_wavefrontRSt14basic_ifstreamIcSt11char_traitsIcEER5Scene+0x752>
         in >> nz;
    101b:	48 8b 85 d8 fe ff ff 	mov    -0x128(%rbp),%rax
    1022:	48 8d 95 10 ff ff ff 	lea    -0xf0(%rbp),%rdx
    1029:	48 89 d6             	mov    %rdx,%rsi
    102c:	48 89 c7             	mov    %rax,%rdi
    102f:	e8 00 00 00 00       	callq  1034 <_Z14read_wavefrontRSt14basic_ifstreamIcSt11char_traitsIcEER5Scene+0x76b>
         normal = Vector<FLOAT, 3>( {nx, ny, nz} );
    1034:	c5 fa 10 85 00 ff ff 	vmovss -0x100(%rbp),%xmm0
    103b:	ff 
    103c:	c5 fa 11 85 74 ff ff 	vmovss %xmm0,-0x8c(%rbp)
    1043:	ff 
    1044:	c5 fa 10 85 08 ff ff 	vmovss -0xf8(%rbp),%xmm0
    104b:	ff 
    104c:	c5 fa 11 85 78 ff ff 	vmovss %xmm0,-0x88(%rbp)
    1053:	ff 
    1054:	c5 fa 10 85 10 ff ff 	vmovss -0xf0(%rbp),%xmm0
    105b:	ff 
    105c:	c5 fa 11 85 7c ff ff 	vmovss %xmm0,-0x84(%rbp)
    1063:	ff 
    1064:	48 8d 85 74 ff ff ff 	lea    -0x8c(%rbp),%rax
    106b:	48 89 85 c0 fe ff ff 	mov    %rax,-0x140(%rbp)
    1072:	48 c7 85 c8 fe ff ff 	movq   $0x3,-0x138(%rbp)
    1079:	03 00 00 00 
    107d:	48 8b 85 c0 fe ff ff 	mov    -0x140(%rbp),%rax
    1084:	48 8b 95 c8 fe ff ff 	mov    -0x138(%rbp),%rdx
    108b:	48 89 c1             	mov    %rax,%rcx
    108e:	48 89 d3             	mov    %rdx,%rbx
    1091:	48 8d 45 80          	lea    -0x80(%rbp),%rax
    1095:	48 89 ce             	mov    %rcx,%rsi
    1098:	48 89 c7             	mov    %rax,%rdi
    109b:	e8 00 00 00 00       	callq  10a0 <_Z14read_wavefrontRSt14basic_ifstreamIcSt11char_traitsIcEER5Scene+0x7d7>
    10a0:	48 8b 45 80          	mov    -0x80(%rbp),%rax
    10a4:	48 89 85 68 ff ff ff 	mov    %rax,-0x98(%rbp)
    10ab:	8b 45 88             	mov    -0x78(%rbp),%eax
    10ae:	89 85 70 ff ff ff    	mov    %eax,-0x90(%rbp)
         normals.push_back( normal );         
    10b4:	48 8d 95 68 ff ff ff 	lea    -0x98(%rbp),%rdx
    10bb:	48 8d 85 40 ff ff ff 	lea    -0xc0(%rbp),%rax
    10c2:	48 89 d6             	mov    %rdx,%rsi
    10c5:	48 89 c7             	mov    %rax,%rdi
    10c8:	e8 00 00 00 00       	callq  10cd <_Z14read_wavefrontRSt14basic_ifstreamIcSt11char_traitsIcEER5Scene+0x804>
       }
    }
    // read to end of line
    in.ignore(std::numeric_limits<std::streamsize>::max(), '\n');
    10cd:	48 8b 9d d8 fe ff ff 	mov    -0x128(%rbp),%rbx
    10d4:	e8 00 00 00 00       	callq  10d9 <_Z14read_wavefrontRSt14basic_ifstreamIcSt11char_traitsIcEER5Scene+0x810>
    10d9:	ba 0a 00 00 00       	mov    $0xa,%edx
    10de:	48 89 c6             	mov    %rax,%rsi
    10e1:	48 89 df             	mov    %rbx,%rdi
    10e4:	e8 00 00 00 00       	callq  10e9 <_Z14read_wavefrontRSt14basic_ifstreamIcSt11char_traitsIcEER5Scene+0x820>
  while (in >> c) {
    10e9:	e9 53 f8 ff ff       	jmpq   941 <_Z14read_wavefrontRSt14basic_ifstreamIcSt11char_traitsIcEER5Scene+0x78>
  }

  std::cerr << "no of triangles : " << no_of_triangles << std::endl;
    10ee:	48 8d 35 00 00 00 00 	lea    0x0(%rip),%rsi        # 10f5 <_Z14read_wavefrontRSt14basic_ifstreamIcSt11char_traitsIcEER5Scene+0x82c>
    10f5:	48 8d 3d 00 00 00 00 	lea    0x0(%rip),%rdi        # 10fc <_Z14read_wavefrontRSt14basic_ifstreamIcSt11char_traitsIcEER5Scene+0x833>
    10fc:	e8 00 00 00 00       	callq  1101 <_Z14read_wavefrontRSt14basic_ifstreamIcSt11char_traitsIcEER5Scene+0x838>
    1101:	48 89 c2             	mov    %rax,%rdx
    1104:	48 8b 85 18 ff ff ff 	mov    -0xe8(%rbp),%rax
    110b:	48 89 c6             	mov    %rax,%rsi
    110e:	48 89 d7             	mov    %rdx,%rdi
    1111:	e8 00 00 00 00       	callq  1116 <_Z14read_wavefrontRSt14basic_ifstreamIcSt11char_traitsIcEER5Scene+0x84d>
    1116:	48 89 c2             	mov    %rax,%rdx
    1119:	48 8b 05 00 00 00 00 	mov    0x0(%rip),%rax        # 1120 <_Z14read_wavefrontRSt14basic_ifstreamIcSt11char_traitsIcEER5Scene+0x857>
    1120:	48 89 c6             	mov    %rax,%rsi
    1123:	48 89 d7             	mov    %rdx,%rdi
    1126:	e8 00 00 00 00       	callq  112b <_Z14read_wavefrontRSt14basic_ifstreamIcSt11char_traitsIcEER5Scene+0x862>
  std::cerr << "no of vertices : " << vertices.size() << std::endl;
    112b:	48 8d 35 00 00 00 00 	lea    0x0(%rip),%rsi        # 1132 <_Z14read_wavefrontRSt14basic_ifstreamIcSt11char_traitsIcEER5Scene+0x869>
    1132:	48 8d 3d 00 00 00 00 	lea    0x0(%rip),%rdi        # 1139 <_Z14read_wavefrontRSt14basic_ifstreamIcSt11char_traitsIcEER5Scene+0x870>
    1139:	e8 00 00 00 00       	callq  113e <_Z14read_wavefrontRSt14basic_ifstreamIcSt11char_traitsIcEER5Scene+0x875>
    113e:	48 89 c3             	mov    %rax,%rbx
    1141:	48 8d 85 20 ff ff ff 	lea    -0xe0(%rbp),%rax
    1148:	48 89 c7             	mov    %rax,%rdi
    114b:	e8 00 00 00 00       	callq  1150 <_Z14read_wavefrontRSt14basic_ifstreamIcSt11char_traitsIcEER5Scene+0x887>
    1150:	48 89 c6             	mov    %rax,%rsi
    1153:	48 89 df             	mov    %rbx,%rdi
    1156:	e8 00 00 00 00       	callq  115b <_Z14read_wavefrontRSt14basic_ifstreamIcSt11char_traitsIcEER5Scene+0x892>
    115b:	48 89 c2             	mov    %rax,%rdx
    115e:	48 8b 05 00 00 00 00 	mov    0x0(%rip),%rax        # 1165 <_Z14read_wavefrontRSt14basic_ifstreamIcSt11char_traitsIcEER5Scene+0x89c>
    1165:	48 89 c6             	mov    %rax,%rsi
    1168:	48 89 d7             	mov    %rdx,%rdi
    116b:	e8 00 00 00 00       	callq  1170 <_Z14read_wavefrontRSt14basic_ifstreamIcSt11char_traitsIcEER5Scene+0x8a7>
  std::cerr << "no of normals : " << normals.size() << std::endl;
    1170:	48 8d 35 00 00 00 00 	lea    0x0(%rip),%rsi        # 1177 <_Z14read_wavefrontRSt14basic_ifstreamIcSt11char_traitsIcEER5Scene+0x8ae>
    1177:	48 8d 3d 00 00 00 00 	lea    0x0(%rip),%rdi        # 117e <_Z14read_wavefrontRSt14basic_ifstreamIcSt11char_traitsIcEER5Scene+0x8b5>
    117e:	e8 00 00 00 00       	callq  1183 <_Z14read_wavefrontRSt14basic_ifstreamIcSt11char_traitsIcEER5Scene+0x8ba>
    1183:	48 89 c3             	mov    %rax,%rbx
    1186:	48 8d 85 40 ff ff ff 	lea    -0xc0(%rbp),%rax
    118d:	48 89 c7             	mov    %rax,%rdi
    1190:	e8 00 00 00 00       	callq  1195 <_Z14read_wavefrontRSt14basic_ifstreamIcSt11char_traitsIcEER5Scene+0x8cc>
    1195:	48 89 c6             	mov    %rax,%rsi
    1198:	48 89 df             	mov    %rbx,%rdi
    119b:	e8 00 00 00 00       	callq  11a0 <_Z14read_wavefrontRSt14basic_ifstreamIcSt11char_traitsIcEER5Scene+0x8d7>
    11a0:	48 89 c2             	mov    %rax,%rdx
    11a3:	48 8b 05 00 00 00 00 	mov    0x0(%rip),%rax        # 11aa <_Z14read_wavefrontRSt14basic_ifstreamIcSt11char_traitsIcEER5Scene+0x8e1>
    11aa:	48 89 c6             	mov    %rax,%rsi
    11ad:	48 89 d7             	mov    %rdx,%rdi
    11b0:	e8 00 00 00 00       	callq  11b5 <_Z14read_wavefrontRSt14basic_ifstreamIcSt11char_traitsIcEER5Scene+0x8ec>
  std::cerr << "memory used for all triangles [byte] : " << no_of_triangles * sizeof(Triangle<FLOAT>) << std::endl;   
    11b5:	48 8d 35 00 00 00 00 	lea    0x0(%rip),%rsi        # 11bc <_Z14read_wavefrontRSt14basic_ifstreamIcSt11char_traitsIcEER5Scene+0x8f3>
    11bc:	48 8d 3d 00 00 00 00 	lea    0x0(%rip),%rdi        # 11c3 <_Z14read_wavefrontRSt14basic_ifstreamIcSt11char_traitsIcEER5Scene+0x8fa>
    11c3:	e8 00 00 00 00       	callq  11c8 <_Z14read_wavefrontRSt14basic_ifstreamIcSt11char_traitsIcEER5Scene+0x8ff>
    11c8:	48 89 c1             	mov    %rax,%rcx
    11cb:	48 8b 95 18 ff ff ff 	mov    -0xe8(%rbp),%rdx
    11d2:	48 89 d0             	mov    %rdx,%rax
    11d5:	48 c1 e0 03          	shl    $0x3,%rax
    11d9:	48 01 d0             	add    %rdx,%rax
    11dc:	48 c1 e0 03          	shl    $0x3,%rax
    11e0:	48 89 c6             	mov    %rax,%rsi
    11e3:	48 89 cf             	mov    %rcx,%rdi
    11e6:	e8 00 00 00 00       	callq  11eb <_Z14read_wavefrontRSt14basic_ifstreamIcSt11char_traitsIcEER5Scene+0x922>
    11eb:	48 89 c2             	mov    %rax,%rdx
    11ee:	48 8b 05 00 00 00 00 	mov    0x0(%rip),%rax        # 11f5 <_Z14read_wavefrontRSt14basic_ifstreamIcSt11char_traitsIcEER5Scene+0x92c>
    11f5:	48 89 c6             	mov    %rax,%rsi
    11f8:	48 89 d7             	mov    %rdx,%rdi
    11fb:	e8 00 00 00 00       	callq  1200 <_Z14read_wavefrontRSt14basic_ifstreamIcSt11char_traitsIcEER5Scene+0x937>
  std::vector< Vector<FLOAT, 3> > normals;
    1200:	48 8d 85 40 ff ff ff 	lea    -0xc0(%rbp),%rax
    1207:	48 89 c7             	mov    %rax,%rdi
    120a:	e8 00 00 00 00       	callq  120f <_Z14read_wavefrontRSt14basic_ifstreamIcSt11char_traitsIcEER5Scene+0x946>
  std::vector< Vector<FLOAT, 3> > vertices;
    120f:	48 8d 85 20 ff ff ff 	lea    -0xe0(%rbp),%rax
    1216:	48 89 c7             	mov    %rax,%rdi
    1219:	e8 00 00 00 00       	callq  121e <_Z14read_wavefrontRSt14basic_ifstreamIcSt11char_traitsIcEER5Scene+0x955>
}
    121e:	90                   	nop
    121f:	48 8b 45 c8          	mov    -0x38(%rbp),%rax
    1223:	64 48 33 04 25 28 00 	xor    %fs:0x28,%rax
    122a:	00 00 
    122c:	74 33                	je     1261 <_Z14read_wavefrontRSt14basic_ifstreamIcSt11char_traitsIcEER5Scene+0x998>
    122e:	eb 2c                	jmp    125c <_Z14read_wavefrontRSt14basic_ifstreamIcSt11char_traitsIcEER5Scene+0x993>
    1230:	48 89 c3             	mov    %rax,%rbx
  std::vector< Vector<FLOAT, 3> > normals;
    1233:	48 8d 85 40 ff ff ff 	lea    -0xc0(%rbp),%rax
    123a:	48 89 c7             	mov    %rax,%rdi
    123d:	e8 00 00 00 00       	callq  1242 <_Z14read_wavefrontRSt14basic_ifstreamIcSt11char_traitsIcEER5Scene+0x979>
  std::vector< Vector<FLOAT, 3> > vertices;
    1242:	48 8d 85 20 ff ff ff 	lea    -0xe0(%rbp),%rax
    1249:	48 89 c7             	mov    %rax,%rdi
    124c:	e8 00 00 00 00       	callq  1251 <_Z14read_wavefrontRSt14basic_ifstreamIcSt11char_traitsIcEER5Scene+0x988>
    1251:	48 89 d8             	mov    %rbx,%rax
    1254:	48 89 c7             	mov    %rax,%rdi
    1257:	e8 00 00 00 00       	callq  125c <_Z14read_wavefrontRSt14basic_ifstreamIcSt11char_traitsIcEER5Scene+0x993>
}
    125c:	e8 00 00 00 00       	callq  1261 <_Z14read_wavefrontRSt14basic_ifstreamIcSt11char_traitsIcEER5Scene+0x998>
    1261:	48 8d 65 d8          	lea    -0x28(%rbp),%rsp
    1265:	5b                   	pop    %rbx
    1266:	41 5c                	pop    %r12
    1268:	41 5d                	pop    %r13
    126a:	41 5e                	pop    %r14
    126c:	41 5f                	pop    %r15
    126e:	5d                   	pop    %rbp
    126f:	c3                   	retq   

0000000000001270 <_Z8raytraceR6CameraR5SceneR6ScreenP6KDTree>:


// the raytrace algorithm but without refraction and reflection
void raytrace(Camera &camera, Scene & scene, Screen & screen, KDTree *tree = nullptr) {
    1270:	55                   	push   %rbp
    1271:	48 89 e5             	mov    %rsp,%rbp
    1274:	48 81 ec b0 00 00 00 	sub    $0xb0,%rsp
    127b:	48 89 bd 78 ff ff ff 	mov    %rdi,-0x88(%rbp)
    1282:	48 89 b5 70 ff ff ff 	mov    %rsi,-0x90(%rbp)
    1289:	48 89 95 68 ff ff ff 	mov    %rdx,-0x98(%rbp)
    1290:	48 89 8d 60 ff ff ff 	mov    %rcx,-0xa0(%rbp)
    1297:	64 48 8b 04 25 28 00 	mov    %fs:0x28,%rax
    129e:	00 00 
    12a0:	48 89 45 f8          	mov    %rax,-0x8(%rbp)
    12a4:	31 c0                	xor    %eax,%eax
  screen.clear();
    12a6:	48 8d 45 c0          	lea    -0x40(%rbp),%rax
    12aa:	c5 e8 57 d2          	vxorps %xmm2,%xmm2,%xmm2
    12ae:	c5 f0 57 c9          	vxorps %xmm1,%xmm1,%xmm1
    12b2:	c5 f8 57 c0          	vxorps %xmm0,%xmm0,%xmm0
    12b6:	48 89 c7             	mov    %rax,%rdi
    12b9:	e8 00 00 00 00       	callq  12be <_Z8raytraceR6CameraR5SceneR6ScreenP6KDTree+0x4e>
    12be:	48 8b 55 c0          	mov    -0x40(%rbp),%rdx
    12c2:	c5 fa 10 4d c8       	vmovss -0x38(%rbp),%xmm1
    12c7:	48 8b 85 68 ff ff ff 	mov    -0x98(%rbp),%rax
    12ce:	48 89 95 58 ff ff ff 	mov    %rdx,-0xa8(%rbp)
    12d5:	c5 fa 7e 85 58 ff ff 	vmovq  -0xa8(%rbp),%xmm0
    12dc:	ff 
    12dd:	48 89 c7             	mov    %rax,%rdi
    12e0:	e8 00 00 00 00       	callq  12e5 <_Z8raytraceR6CameraR5SceneR6ScreenP6KDTree+0x75>
  Material material;
    12e5:	48 8d 45 b0          	lea    -0x50(%rbp),%rax
    12e9:	c5 fa 10 15 00 00 00 	vmovss 0x0(%rip),%xmm2        # 12f1 <_Z8raytraceR6CameraR5SceneR6ScreenP6KDTree+0x81>
    12f0:	00 
    12f1:	c5 fa 10 0d 00 00 00 	vmovss 0x0(%rip),%xmm1        # 12f9 <_Z8raytraceR6CameraR5SceneR6ScreenP6KDTree+0x89>
    12f8:	00 
    12f9:	c5 fa 10 05 00 00 00 	vmovss 0x0(%rip),%xmm0        # 1301 <_Z8raytraceR6CameraR5SceneR6ScreenP6KDTree+0x91>
    1300:	00 
    1301:	48 89 c7             	mov    %rax,%rdi
    1304:	e8 00 00 00 00       	callq  1309 <_Z8raytraceR6CameraR5SceneR6ScreenP6KDTree+0x99>
    1309:	48 8b 55 b0          	mov    -0x50(%rbp),%rdx
    130d:	c5 fa 10 4d b8       	vmovss -0x48(%rbp),%xmm1
    1312:	48 8d 45 c0          	lea    -0x40(%rbp),%rax
    1316:	c5 d0 57 ed          	vxorps %xmm5,%xmm5,%xmm5
    131a:	c5 d8 57 e4          	vxorps %xmm4,%xmm4,%xmm4
    131e:	c5 fa 10 1d 00 00 00 	vmovss 0x0(%rip),%xmm3        # 1326 <_Z8raytraceR6CameraR5SceneR6ScreenP6KDTree+0xb6>
    1325:	00 
    1326:	c5 fa 10 15 00 00 00 	vmovss 0x0(%rip),%xmm2        # 132e <_Z8raytraceR6CameraR5SceneR6ScreenP6KDTree+0xbe>
    132d:	00 
    132e:	48 89 95 58 ff ff ff 	mov    %rdx,-0xa8(%rbp)
    1335:	c5 fa 7e 85 58 ff ff 	vmovq  -0xa8(%rbp),%xmm0
    133c:	ff 
    133d:	48 89 c7             	mov    %rax,%rdi
    1340:	e8 00 00 00 00       	callq  1345 <_Z8raytraceR6CameraR5SceneR6ScreenP6KDTree+0xd5>
  Color color;
    1345:	48 8d 45 a4          	lea    -0x5c(%rbp),%rax
    1349:	c5 e8 57 d2          	vxorps %xmm2,%xmm2,%xmm2
    134d:	c5 f0 57 c9          	vxorps %xmm1,%xmm1,%xmm1
    1351:	c5 f8 57 c0          	vxorps %xmm0,%xmm0,%xmm0
    1355:	48 89 c7             	mov    %rax,%rdi
    1358:	e8 00 00 00 00       	callq  135d <_Z8raytraceR6CameraR5SceneR6ScreenP6KDTree+0xed>
  for (FLOAT x = 0.0; x < screen.getWidth(); x++) {
    135d:	c5 f8 57 c0          	vxorps %xmm0,%xmm0,%xmm0
    1361:	c5 fa 11 45 9c       	vmovss %xmm0,-0x64(%rbp)
    1366:	48 8b 85 68 ff ff ff 	mov    -0x98(%rbp),%rax
    136d:	48 89 c7             	mov    %rax,%rdi
    1370:	e8 00 00 00 00       	callq  1375 <_Z8raytraceR6CameraR5SceneR6ScreenP6KDTree+0x105>
    1375:	48 85 c0             	test   %rax,%rax
    1378:	78 07                	js     1381 <_Z8raytraceR6CameraR5SceneR6ScreenP6KDTree+0x111>
    137a:	c4 e1 fa 2a c0       	vcvtsi2ss %rax,%xmm0,%xmm0
    137f:	eb 15                	jmp    1396 <_Z8raytraceR6CameraR5SceneR6ScreenP6KDTree+0x126>
    1381:	48 89 c2             	mov    %rax,%rdx
    1384:	48 d1 ea             	shr    %rdx
    1387:	83 e0 01             	and    $0x1,%eax
    138a:	48 09 c2             	or     %rax,%rdx
    138d:	c4 e1 fa 2a c2       	vcvtsi2ss %rdx,%xmm0,%xmm0
    1392:	c5 fa 58 c0          	vaddss %xmm0,%xmm0,%xmm0
    1396:	c5 f8 2e 45 9c       	vucomiss -0x64(%rbp),%xmm0
    139b:	0f 97 c0             	seta   %al
    139e:	84 c0                	test   %al,%al
    13a0:	0f 84 82 02 00 00    	je     1628 <_Z8raytraceR6CameraR5SceneR6ScreenP6KDTree+0x3b8>
    for (FLOAT y = 0.0; y < screen.getHeight(); y++) {
    13a6:	c5 f8 57 c0          	vxorps %xmm0,%xmm0,%xmm0
    13aa:	c5 fa 11 45 a0       	vmovss %xmm0,-0x60(%rbp)
    13af:	48 8b 85 68 ff ff ff 	mov    -0x98(%rbp),%rax
    13b6:	48 89 c7             	mov    %rax,%rdi
    13b9:	e8 00 00 00 00       	callq  13be <_Z8raytraceR6CameraR5SceneR6ScreenP6KDTree+0x14e>
    13be:	48 85 c0             	test   %rax,%rax
    13c1:	78 07                	js     13ca <_Z8raytraceR6CameraR5SceneR6ScreenP6KDTree+0x15a>
    13c3:	c4 e1 fa 2a c0       	vcvtsi2ss %rax,%xmm0,%xmm0
    13c8:	eb 15                	jmp    13df <_Z8raytraceR6CameraR5SceneR6ScreenP6KDTree+0x16f>
    13ca:	48 89 c2             	mov    %rax,%rdx
    13cd:	48 d1 ea             	shr    %rdx
    13d0:	83 e0 01             	and    $0x1,%eax
    13d3:	48 09 c2             	or     %rax,%rdx
    13d6:	c4 e1 fa 2a c2       	vcvtsi2ss %rdx,%xmm0,%xmm0
    13db:	c5 fa 58 c0          	vaddss %xmm0,%xmm0,%xmm0
    13df:	c5 f8 2e 45 a0       	vucomiss -0x60(%rbp),%xmm0
    13e4:	0f 97 c0             	seta   %al
    13e7:	84 c0                	test   %al,%al
    13e9:	0f 84 1e 02 00 00    	je     160d <_Z8raytraceR6CameraR5SceneR6ScreenP6KDTree+0x39d>
      color = Color(0.0, 0.0, 0.0);
    13ef:	48 8d 45 b0          	lea    -0x50(%rbp),%rax
    13f3:	c5 e8 57 d2          	vxorps %xmm2,%xmm2,%xmm2
    13f7:	c5 f0 57 c9          	vxorps %xmm1,%xmm1,%xmm1
    13fb:	c5 f8 57 c0          	vxorps %xmm0,%xmm0,%xmm0
    13ff:	48 89 c7             	mov    %rax,%rdi
    1402:	e8 00 00 00 00       	callq  1407 <_Z8raytraceR6CameraR5SceneR6ScreenP6KDTree+0x197>
    1407:	48 8b 45 b0          	mov    -0x50(%rbp),%rax
    140b:	48 89 45 a4          	mov    %rax,-0x5c(%rbp)
    140f:	8b 45 b8             	mov    -0x48(%rbp),%eax
    1412:	89 45 ac             	mov    %eax,-0x54(%rbp)
      const Ray<FLOAT> ray = camera.getRay(x,y);
    1415:	c5 fa 10 45 a0       	vmovss -0x60(%rbp),%xmm0
    141a:	c5 f8 2e 05 00 00 00 	vucomiss 0x0(%rip),%xmm0        # 1422 <_Z8raytraceR6CameraR5SceneR6ScreenP6KDTree+0x1b2>
    1421:	00 
    1422:	73 0c                	jae    1430 <_Z8raytraceR6CameraR5SceneR6ScreenP6KDTree+0x1c0>
    1424:	c5 fa 10 45 a0       	vmovss -0x60(%rbp),%xmm0
    1429:	c4 e1 fa 2c d0       	vcvttss2si %xmm0,%rdx
    142e:	eb 23                	jmp    1453 <_Z8raytraceR6CameraR5SceneR6ScreenP6KDTree+0x1e3>
    1430:	c5 fa 10 45 a0       	vmovss -0x60(%rbp),%xmm0
    1435:	c5 fa 10 0d 00 00 00 	vmovss 0x0(%rip),%xmm1        # 143d <_Z8raytraceR6CameraR5SceneR6ScreenP6KDTree+0x1cd>
    143c:	00 
    143d:	c5 fa 5c c1          	vsubss %xmm1,%xmm0,%xmm0
    1441:	c4 e1 fa 2c d0       	vcvttss2si %xmm0,%rdx
    1446:	48 b8 00 00 00 00 00 	movabs $0x8000000000000000,%rax
    144d:	00 00 80 
    1450:	48 31 c2             	xor    %rax,%rdx
    1453:	c5 fa 10 45 9c       	vmovss -0x64(%rbp),%xmm0
    1458:	c5 f8 2e 05 00 00 00 	vucomiss 0x0(%rip),%xmm0        # 1460 <_Z8raytraceR6CameraR5SceneR6ScreenP6KDTree+0x1f0>
    145f:	00 
    1460:	73 0c                	jae    146e <_Z8raytraceR6CameraR5SceneR6ScreenP6KDTree+0x1fe>
    1462:	c5 fa 10 45 9c       	vmovss -0x64(%rbp),%xmm0
    1467:	c4 e1 fa 2c c0       	vcvttss2si %xmm0,%rax
    146c:	eb 23                	jmp    1491 <_Z8raytraceR6CameraR5SceneR6ScreenP6KDTree+0x221>
    146e:	c5 fa 10 45 9c       	vmovss -0x64(%rbp),%xmm0
    1473:	c5 fa 10 0d 00 00 00 	vmovss 0x0(%rip),%xmm1        # 147b <_Z8raytraceR6CameraR5SceneR6ScreenP6KDTree+0x20b>
    147a:	00 
    147b:	c5 fa 5c c1          	vsubss %xmm1,%xmm0,%xmm0
    147f:	c4 e1 fa 2c c0       	vcvttss2si %xmm0,%rax
    1484:	48 b9 00 00 00 00 00 	movabs $0x8000000000000000,%rcx
    148b:	00 00 80 
    148e:	48 31 c8             	xor    %rcx,%rax
    1491:	48 8d 7d e0          	lea    -0x20(%rbp),%rdi
    1495:	48 8b b5 78 ff ff ff 	mov    -0x88(%rbp),%rsi
    149c:	48 89 d1             	mov    %rdx,%rcx
    149f:	48 89 c2             	mov    %rax,%rdx
    14a2:	e8 00 00 00 00       	callq  14a7 <_Z8raytraceR6CameraR5SceneR6ScreenP6KDTree+0x237>
      Triangle<FLOAT> *nearest_triangle = nullptr;
    14a7:	48 c7 45 b0 00 00 00 	movq   $0x0,-0x50(%rbp)
    14ae:	00 
      FLOAT t = INFINITY, u = 0, v = 0;
    14af:	c5 fa 10 05 00 00 00 	vmovss 0x0(%rip),%xmm0        # 14b7 <_Z8raytraceR6CameraR5SceneR6ScreenP6KDTree+0x247>
    14b6:	00 
    14b7:	c5 fa 11 45 90       	vmovss %xmm0,-0x70(%rbp)
    14bc:	c5 f8 57 c0          	vxorps %xmm0,%xmm0,%xmm0
    14c0:	c5 fa 11 45 94       	vmovss %xmm0,-0x6c(%rbp)
    14c5:	c5 f8 57 c0          	vxorps %xmm0,%xmm0,%xmm0
    14c9:	c5 fa 11 45 98       	vmovss %xmm0,-0x68(%rbp)
#ifndef USE_KDTREE
      bool hasNearestTriangle = scene.hasNearestTriangle(ray, nearest_triangle, t, u, v);
    14ce:	4c 8d 45 98          	lea    -0x68(%rbp),%r8
    14d2:	48 8d 7d 94          	lea    -0x6c(%rbp),%rdi
    14d6:	48 8d 4d 90          	lea    -0x70(%rbp),%rcx
    14da:	48 8d 55 b0          	lea    -0x50(%rbp),%rdx
    14de:	48 8d 75 e0          	lea    -0x20(%rbp),%rsi
    14e2:	48 8b 85 70 ff ff ff 	mov    -0x90(%rbp),%rax
    14e9:	48 83 ec 08          	sub    $0x8,%rsp
    14ed:	6a 01                	pushq  $0x1
    14ef:	4d 89 c1             	mov    %r8,%r9
    14f2:	49 89 f8             	mov    %rdi,%r8
    14f5:	48 89 c7             	mov    %rax,%rdi
    14f8:	e8 00 00 00 00       	callq  14fd <_Z8raytraceR6CameraR5SceneR6ScreenP6KDTree+0x28d>
    14fd:	48 83 c4 10          	add    $0x10,%rsp
    1501:	88 45 8f             	mov    %al,-0x71(%rbp)
#else
      bool hasNearestTriangle = tree->hasNearestTriangle(ray.getOrigin(), ray.getDirection(),  nearest_triangle, t, u, v);
#endif
      if ( hasNearestTriangle ) {
    1504:	80 7d 8f 00          	cmpb   $0x0,-0x71(%rbp)
    1508:	74 42                	je     154c <_Z8raytraceR6CameraR5SceneR6ScreenP6KDTree+0x2dc>
        // no reflection and refraction
        color = scene.shade(ray, *nearest_triangle, material, t, u, v);
    150a:	48 8b 55 b0          	mov    -0x50(%rbp),%rdx
    150e:	4c 8d 4d 94          	lea    -0x6c(%rbp),%r9
    1512:	4c 8d 45 90          	lea    -0x70(%rbp),%r8
    1516:	48 8d 4d c0          	lea    -0x40(%rbp),%rcx
    151a:	48 8d 75 e0          	lea    -0x20(%rbp),%rsi
    151e:	48 8b 85 70 ff ff ff 	mov    -0x90(%rbp),%rax
    1525:	48 83 ec 08          	sub    $0x8,%rsp
    1529:	48 8d 7d 98          	lea    -0x68(%rbp),%rdi
    152d:	57                   	push   %rdi
    152e:	48 89 c7             	mov    %rax,%rdi
    1531:	e8 00 00 00 00       	callq  1536 <_Z8raytraceR6CameraR5SceneR6ScreenP6KDTree+0x2c6>
    1536:	48 83 c4 10          	add    $0x10,%rsp
    153a:	c4 e1 f9 7e c0       	vmovq  %xmm0,%rax
    153f:	c5 f8 28 c1          	vmovaps %xmm1,%xmm0
    1543:	48 89 45 a4          	mov    %rax,-0x5c(%rbp)
    1547:	c5 fa 11 45 ac       	vmovss %xmm0,-0x54(%rbp)
      }
      screen.setPixel(x, y, color);
    154c:	c5 fa 10 45 a0       	vmovss -0x60(%rbp),%xmm0
    1551:	c5 f8 2e 05 00 00 00 	vucomiss 0x0(%rip),%xmm0        # 1559 <_Z8raytraceR6CameraR5SceneR6ScreenP6KDTree+0x2e9>
    1558:	00 
    1559:	73 0c                	jae    1567 <_Z8raytraceR6CameraR5SceneR6ScreenP6KDTree+0x2f7>
    155b:	c5 fa 10 45 a0       	vmovss -0x60(%rbp),%xmm0
    1560:	c4 e1 fa 2c d0       	vcvttss2si %xmm0,%rdx
    1565:	eb 23                	jmp    158a <_Z8raytraceR6CameraR5SceneR6ScreenP6KDTree+0x31a>
    1567:	c5 fa 10 45 a0       	vmovss -0x60(%rbp),%xmm0
    156c:	c5 fa 10 0d 00 00 00 	vmovss 0x0(%rip),%xmm1        # 1574 <_Z8raytraceR6CameraR5SceneR6ScreenP6KDTree+0x304>
    1573:	00 
    1574:	c5 fa 5c c1          	vsubss %xmm1,%xmm0,%xmm0
    1578:	c4 e1 fa 2c d0       	vcvttss2si %xmm0,%rdx
    157d:	48 b8 00 00 00 00 00 	movabs $0x8000000000000000,%rax
    1584:	00 00 80 
    1587:	48 31 c2             	xor    %rax,%rdx
    158a:	c5 fa 10 45 9c       	vmovss -0x64(%rbp),%xmm0
    158f:	c5 f8 2e 05 00 00 00 	vucomiss 0x0(%rip),%xmm0        # 1597 <_Z8raytraceR6CameraR5SceneR6ScreenP6KDTree+0x327>
    1596:	00 
    1597:	73 0c                	jae    15a5 <_Z8raytraceR6CameraR5SceneR6ScreenP6KDTree+0x335>
    1599:	c5 fa 10 45 9c       	vmovss -0x64(%rbp),%xmm0
    159e:	c4 e1 fa 2c c0       	vcvttss2si %xmm0,%rax
    15a3:	eb 23                	jmp    15c8 <_Z8raytraceR6CameraR5SceneR6ScreenP6KDTree+0x358>
    15a5:	c5 fa 10 45 9c       	vmovss -0x64(%rbp),%xmm0
    15aa:	c5 fa 10 0d 00 00 00 	vmovss 0x0(%rip),%xmm1        # 15b2 <_Z8raytraceR6CameraR5SceneR6ScreenP6KDTree+0x342>
    15b1:	00 
    15b2:	c5 fa 5c c1          	vsubss %xmm1,%xmm0,%xmm0
    15b6:	c4 e1 fa 2c c0       	vcvttss2si %xmm0,%rax
    15bb:	48 b9 00 00 00 00 00 	movabs $0x8000000000000000,%rcx
    15c2:	00 00 80 
    15c5:	48 31 c8             	xor    %rcx,%rax
    15c8:	48 8b 75 a4          	mov    -0x5c(%rbp),%rsi
    15cc:	c5 fa 10 4d ac       	vmovss -0x54(%rbp),%xmm1
    15d1:	48 8b 8d 68 ff ff ff 	mov    -0x98(%rbp),%rcx
    15d8:	48 89 b5 58 ff ff ff 	mov    %rsi,-0xa8(%rbp)
    15df:	c5 fa 7e 85 58 ff ff 	vmovq  -0xa8(%rbp),%xmm0
    15e6:	ff 
    15e7:	48 89 c6             	mov    %rax,%rsi
    15ea:	48 89 cf             	mov    %rcx,%rdi
    15ed:	e8 00 00 00 00       	callq  15f2 <_Z8raytraceR6CameraR5SceneR6ScreenP6KDTree+0x382>
    for (FLOAT y = 0.0; y < screen.getHeight(); y++) {
    15f2:	c5 fa 10 4d a0       	vmovss -0x60(%rbp),%xmm1
    15f7:	c5 fa 10 05 00 00 00 	vmovss 0x0(%rip),%xmm0        # 15ff <_Z8raytraceR6CameraR5SceneR6ScreenP6KDTree+0x38f>
    15fe:	00 
    15ff:	c5 f2 58 c0          	vaddss %xmm0,%xmm1,%xmm0
    1603:	c5 fa 11 45 a0       	vmovss %xmm0,-0x60(%rbp)
    1608:	e9 a2 fd ff ff       	jmpq   13af <_Z8raytraceR6CameraR5SceneR6ScreenP6KDTree+0x13f>
  for (FLOAT x = 0.0; x < screen.getWidth(); x++) {
    160d:	c5 fa 10 4d 9c       	vmovss -0x64(%rbp),%xmm1
    1612:	c5 fa 10 05 00 00 00 	vmovss 0x0(%rip),%xmm0        # 161a <_Z8raytraceR6CameraR5SceneR6ScreenP6KDTree+0x3aa>
    1619:	00 
    161a:	c5 f2 58 c0          	vaddss %xmm0,%xmm1,%xmm0
    161e:	c5 fa 11 45 9c       	vmovss %xmm0,-0x64(%rbp)
    1623:	e9 3e fd ff ff       	jmpq   1366 <_Z8raytraceR6CameraR5SceneR6ScreenP6KDTree+0xf6>
    }
  }
}
    1628:	90                   	nop
    1629:	48 8b 45 f8          	mov    -0x8(%rbp),%rax
    162d:	64 48 33 04 25 28 00 	xor    %fs:0x28,%rax
    1634:	00 00 
    1636:	74 05                	je     163d <_Z8raytraceR6CameraR5SceneR6ScreenP6KDTree+0x3cd>
    1638:	e8 00 00 00 00       	callq  163d <_Z8raytraceR6CameraR5SceneR6ScreenP6KDTree+0x3cd>
    163d:	c9                   	leaveq 
    163e:	c3                   	retq   

000000000000163f <_Z15parse_argumentsiPPc>:




void parse_arguments(int argc, char *argv[]) {
    163f:	55                   	push   %rbp
    1640:	48 89 e5             	mov    %rsp,%rbp
    1643:	53                   	push   %rbx
    1644:	48 83 ec 58          	sub    $0x58,%rsp
    1648:	89 7d ac             	mov    %edi,-0x54(%rbp)
    164b:	48 89 75 a0          	mov    %rsi,-0x60(%rbp)
    164f:	64 48 8b 04 25 28 00 	mov    %fs:0x28,%rax
    1656:	00 00 
    1658:	48 89 45 e8          	mov    %rax,-0x18(%rbp)
    165c:	31 c0                	xor    %eax,%eax
   {"no_ppm", optional_argument, 0, 'n'},
  };
  int c;
  int option_index;

  while ( (c = getopt_long (argc, argv, "ro:", long_options, &option_index)) != -1 ) {
    165e:	48 8d 55 b8          	lea    -0x48(%rbp),%rdx
    1662:	48 8b 75 a0          	mov    -0x60(%rbp),%rsi
    1666:	8b 45 ac             	mov    -0x54(%rbp),%eax
    1669:	49 89 d0             	mov    %rdx,%r8
    166c:	48 8d 0d 00 00 00 00 	lea    0x0(%rip),%rcx        # 1673 <_Z15parse_argumentsiPPc+0x34>
    1673:	48 8d 15 00 00 00 00 	lea    0x0(%rip),%rdx        # 167a <_Z15parse_argumentsiPPc+0x3b>
    167a:	89 c7                	mov    %eax,%edi
    167c:	e8 00 00 00 00       	callq  1681 <_Z15parse_argumentsiPPc+0x42>
    1681:	89 45 bc             	mov    %eax,-0x44(%rbp)
    1684:	83 7d bc ff          	cmpl   $0xffffffff,-0x44(%rbp)
    1688:	0f 95 c0             	setne  %al
    168b:	84 c0                	test   %al,%al
    168d:	0f 84 23 03 00 00    	je     19b6 <_Z15parse_argumentsiPPc+0x377>
    switch (c) {
    1693:	8b 45 bc             	mov    -0x44(%rbp),%eax
    1696:	83 e8 66             	sub    $0x66,%eax
    1699:	83 f8 11             	cmp    $0x11,%eax
    169c:	77 c0                	ja     165e <_Z15parse_argumentsiPPc+0x1f>
    169e:	89 c0                	mov    %eax,%eax
    16a0:	48 8d 14 85 00 00 00 	lea    0x0(,%rax,4),%rdx
    16a7:	00 
    16a8:	48 8d 05 00 00 00 00 	lea    0x0(%rip),%rax        # 16af <_Z15parse_argumentsiPPc+0x70>
    16af:	8b 04 02             	mov    (%rdx,%rax,1),%eax
    16b2:	48 63 d0             	movslq %eax,%rdx
    16b5:	48 8d 05 00 00 00 00 	lea    0x0(%rip),%rax        # 16bc <_Z15parse_argumentsiPPc+0x7d>
    16bc:	48 01 d0             	add    %rdx,%rax
    16bf:	ff e0                	jmpq   *%rax
    case 'f': input_file_name = std::string(optarg);
    16c1:	48 8d 45 b7          	lea    -0x49(%rbp),%rax
    16c5:	48 89 c7             	mov    %rax,%rdi
    16c8:	e8 00 00 00 00       	callq  16cd <_Z15parse_argumentsiPPc+0x8e>
    16cd:	48 8b 0d 00 00 00 00 	mov    0x0(%rip),%rcx        # 16d4 <_Z15parse_argumentsiPPc+0x95>
    16d4:	48 8d 55 b7          	lea    -0x49(%rbp),%rdx
    16d8:	48 8d 45 c0          	lea    -0x40(%rbp),%rax
    16dc:	48 89 ce             	mov    %rcx,%rsi
    16df:	48 89 c7             	mov    %rax,%rdi
    16e2:	e8 00 00 00 00       	callq  16e7 <_Z15parse_argumentsiPPc+0xa8>
    16e7:	48 8d 45 c0          	lea    -0x40(%rbp),%rax
    16eb:	48 89 c6             	mov    %rax,%rsi
    16ee:	48 8d 3d 00 00 00 00 	lea    0x0(%rip),%rdi        # 16f5 <_Z15parse_argumentsiPPc+0xb6>
    16f5:	e8 00 00 00 00       	callq  16fa <_Z15parse_argumentsiPPc+0xbb>
    16fa:	48 8d 45 c0          	lea    -0x40(%rbp),%rax
    16fe:	48 89 c7             	mov    %rax,%rdi
    1701:	e8 00 00 00 00       	callq  1706 <_Z15parse_argumentsiPPc+0xc7>
    1706:	48 8d 45 b7          	lea    -0x49(%rbp),%rax
    170a:	48 89 c7             	mov    %rax,%rdi
    170d:	e8 00 00 00 00       	callq  1712 <_Z15parse_argumentsiPPc+0xd3>
              break;
    1712:	e9 9a 02 00 00       	jmpq   19b1 <_Z15parse_argumentsiPPc+0x372>
    case 'r': reverse_vertice_order = true;
    1717:	c6 05 00 00 00 00 01 	movb   $0x1,0x0(%rip)        # 171e <_Z15parse_argumentsiPPc+0xdf>
              break;
    171e:	e9 8e 02 00 00       	jmpq   19b1 <_Z15parse_argumentsiPPc+0x372>
    case 'w': resolution_x = std::stoi(optarg);
    1723:	48 8d 45 b7          	lea    -0x49(%rbp),%rax
    1727:	48 89 c7             	mov    %rax,%rdi
    172a:	e8 00 00 00 00       	callq  172f <_Z15parse_argumentsiPPc+0xf0>
    172f:	48 8b 0d 00 00 00 00 	mov    0x0(%rip),%rcx        # 1736 <_Z15parse_argumentsiPPc+0xf7>
    1736:	48 8d 55 b7          	lea    -0x49(%rbp),%rdx
    173a:	48 8d 45 c0          	lea    -0x40(%rbp),%rax
    173e:	48 89 ce             	mov    %rcx,%rsi
    1741:	48 89 c7             	mov    %rax,%rdi
    1744:	e8 00 00 00 00       	callq  1749 <_Z15parse_argumentsiPPc+0x10a>
    1749:	48 8d 45 c0          	lea    -0x40(%rbp),%rax
    174d:	ba 0a 00 00 00       	mov    $0xa,%edx
    1752:	be 00 00 00 00       	mov    $0x0,%esi
    1757:	48 89 c7             	mov    %rax,%rdi
    175a:	e8 00 00 00 00       	callq  175f <_Z15parse_argumentsiPPc+0x120>
    175f:	89 05 00 00 00 00    	mov    %eax,0x0(%rip)        # 1765 <_Z15parse_argumentsiPPc+0x126>
    1765:	48 8d 45 c0          	lea    -0x40(%rbp),%rax
    1769:	48 89 c7             	mov    %rax,%rdi
    176c:	e8 00 00 00 00       	callq  1771 <_Z15parse_argumentsiPPc+0x132>
    1771:	48 8d 45 b7          	lea    -0x49(%rbp),%rax
    1775:	48 89 c7             	mov    %rax,%rdi
    1778:	e8 00 00 00 00       	callq  177d <_Z15parse_argumentsiPPc+0x13e>
              break;
    177d:	e9 2f 02 00 00       	jmpq   19b1 <_Z15parse_argumentsiPPc+0x372>
    case 'h': resolution_y = std::stoi(optarg);
    1782:	48 8d 45 b7          	lea    -0x49(%rbp),%rax
    1786:	48 89 c7             	mov    %rax,%rdi
    1789:	e8 00 00 00 00       	callq  178e <_Z15parse_argumentsiPPc+0x14f>
    178e:	48 8b 0d 00 00 00 00 	mov    0x0(%rip),%rcx        # 1795 <_Z15parse_argumentsiPPc+0x156>
    1795:	48 8d 55 b7          	lea    -0x49(%rbp),%rdx
    1799:	48 8d 45 c0          	lea    -0x40(%rbp),%rax
    179d:	48 89 ce             	mov    %rcx,%rsi
    17a0:	48 89 c7             	mov    %rax,%rdi
    17a3:	e8 00 00 00 00       	callq  17a8 <_Z15parse_argumentsiPPc+0x169>
    17a8:	48 8d 45 c0          	lea    -0x40(%rbp),%rax
    17ac:	ba 0a 00 00 00       	mov    $0xa,%edx
    17b1:	be 00 00 00 00       	mov    $0x0,%esi
    17b6:	48 89 c7             	mov    %rax,%rdi
    17b9:	e8 00 00 00 00       	callq  17be <_Z15parse_argumentsiPPc+0x17f>
    17be:	89 05 00 00 00 00    	mov    %eax,0x0(%rip)        # 17c4 <_Z15parse_argumentsiPPc+0x185>
    17c4:	48 8d 45 c0          	lea    -0x40(%rbp),%rax
    17c8:	48 89 c7             	mov    %rax,%rdi
    17cb:	e8 00 00 00 00       	callq  17d0 <_Z15parse_argumentsiPPc+0x191>
    17d0:	48 8d 45 b7          	lea    -0x49(%rbp),%rax
    17d4:	48 89 c7             	mov    %rax,%rdi
    17d7:	e8 00 00 00 00       	callq  17dc <_Z15parse_argumentsiPPc+0x19d>
              break;
    17dc:	e9 d0 01 00 00       	jmpq   19b1 <_Z15parse_argumentsiPPc+0x372>
    case 'o': output_bmp_file_name = std::string(optarg);
    17e1:	48 8d 45 b7          	lea    -0x49(%rbp),%rax
    17e5:	48 89 c7             	mov    %rax,%rdi
    17e8:	e8 00 00 00 00       	callq  17ed <_Z15parse_argumentsiPPc+0x1ae>
    17ed:	48 8b 0d 00 00 00 00 	mov    0x0(%rip),%rcx        # 17f4 <_Z15parse_argumentsiPPc+0x1b5>
    17f4:	48 8d 55 b7          	lea    -0x49(%rbp),%rdx
    17f8:	48 8d 45 c0          	lea    -0x40(%rbp),%rax
    17fc:	48 89 ce             	mov    %rcx,%rsi
    17ff:	48 89 c7             	mov    %rax,%rdi
    1802:	e8 00 00 00 00       	callq  1807 <_Z15parse_argumentsiPPc+0x1c8>
    1807:	48 8d 45 c0          	lea    -0x40(%rbp),%rax
    180b:	48 89 c6             	mov    %rax,%rsi
    180e:	48 8d 3d 00 00 00 00 	lea    0x0(%rip),%rdi        # 1815 <_Z15parse_argumentsiPPc+0x1d6>
    1815:	e8 00 00 00 00       	callq  181a <_Z15parse_argumentsiPPc+0x1db>
    181a:	48 8d 45 c0          	lea    -0x40(%rbp),%rax
    181e:	48 89 c7             	mov    %rax,%rdi
    1821:	e8 00 00 00 00       	callq  1826 <_Z15parse_argumentsiPPc+0x1e7>
    1826:	48 8d 45 b7          	lea    -0x49(%rbp),%rax
    182a:	48 89 c7             	mov    %rax,%rdi
    182d:	e8 00 00 00 00       	callq  1832 <_Z15parse_argumentsiPPc+0x1f3>
              break;
    1832:	e9 7a 01 00 00       	jmpq   19b1 <_Z15parse_argumentsiPPc+0x372>
    case 'n': write_ppm_to_stdout = false;
    1837:	c6 05 00 00 00 00 00 	movb   $0x0,0x0(%rip)        # 183e <_Z15parse_argumentsiPPc+0x1ff>
              break;
    183e:	e9 6e 01 00 00       	jmpq   19b1 <_Z15parse_argumentsiPPc+0x372>
    case 'u': std::cout << "Aufruf: " << argv[0] << " [options]" << std::endl;
    1843:	48 8d 35 00 00 00 00 	lea    0x0(%rip),%rsi        # 184a <_Z15parse_argumentsiPPc+0x20b>
    184a:	48 8d 3d 00 00 00 00 	lea    0x0(%rip),%rdi        # 1851 <_Z15parse_argumentsiPPc+0x212>
    1851:	e8 00 00 00 00       	callq  1856 <_Z15parse_argumentsiPPc+0x217>
    1856:	48 89 c2             	mov    %rax,%rdx
    1859:	48 8b 45 a0          	mov    -0x60(%rbp),%rax
    185d:	48 8b 00             	mov    (%rax),%rax
    1860:	48 89 c6             	mov    %rax,%rsi
    1863:	48 89 d7             	mov    %rdx,%rdi
    1866:	e8 00 00 00 00       	callq  186b <_Z15parse_argumentsiPPc+0x22c>
    186b:	48 8d 35 00 00 00 00 	lea    0x0(%rip),%rsi        # 1872 <_Z15parse_argumentsiPPc+0x233>
    1872:	48 89 c7             	mov    %rax,%rdi
    1875:	e8 00 00 00 00       	callq  187a <_Z15parse_argumentsiPPc+0x23b>
    187a:	48 89 c2             	mov    %rax,%rdx
    187d:	48 8b 05 00 00 00 00 	mov    0x0(%rip),%rax        # 1884 <_Z15parse_argumentsiPPc+0x245>
    1884:	48 89 c6             	mov    %rax,%rsi
    1887:	48 89 d7             	mov    %rdx,%rdi
    188a:	e8 00 00 00 00       	callq  188f <_Z15parse_argumentsiPPc+0x250>
              std::cout << "  --file FILE          wavefront obj input file ('example/teapot.obj')" << std::endl;
    188f:	48 8d 35 00 00 00 00 	lea    0x0(%rip),%rsi        # 1896 <_Z15parse_argumentsiPPc+0x257>
    1896:	48 8d 3d 00 00 00 00 	lea    0x0(%rip),%rdi        # 189d <_Z15parse_argumentsiPPc+0x25e>
    189d:	e8 00 00 00 00       	callq  18a2 <_Z15parse_argumentsiPPc+0x263>
    18a2:	48 89 c2             	mov    %rax,%rdx
    18a5:	48 8b 05 00 00 00 00 	mov    0x0(%rip),%rax        # 18ac <_Z15parse_argumentsiPPc+0x26d>
    18ac:	48 89 c6             	mov    %rax,%rsi
    18af:	48 89 d7             	mov    %rdx,%rdi
    18b2:	e8 00 00 00 00       	callq  18b7 <_Z15parse_argumentsiPPc+0x278>
              std::cout << "  --width WIDTH        horizontal resolution (256)" << std::endl;
    18b7:	48 8d 35 00 00 00 00 	lea    0x0(%rip),%rsi        # 18be <_Z15parse_argumentsiPPc+0x27f>
    18be:	48 8d 3d 00 00 00 00 	lea    0x0(%rip),%rdi        # 18c5 <_Z15parse_argumentsiPPc+0x286>
    18c5:	e8 00 00 00 00       	callq  18ca <_Z15parse_argumentsiPPc+0x28b>
    18ca:	48 89 c2             	mov    %rax,%rdx
    18cd:	48 8b 05 00 00 00 00 	mov    0x0(%rip),%rax        # 18d4 <_Z15parse_argumentsiPPc+0x295>
    18d4:	48 89 c6             	mov    %rax,%rsi
    18d7:	48 89 d7             	mov    %rdx,%rdi
    18da:	e8 00 00 00 00       	callq  18df <_Z15parse_argumentsiPPc+0x2a0>
              std::cout << "  --height HEIGHT      vertical resolution (256)" << std::endl;
    18df:	48 8d 35 00 00 00 00 	lea    0x0(%rip),%rsi        # 18e6 <_Z15parse_argumentsiPPc+0x2a7>
    18e6:	48 8d 3d 00 00 00 00 	lea    0x0(%rip),%rdi        # 18ed <_Z15parse_argumentsiPPc+0x2ae>
    18ed:	e8 00 00 00 00       	callq  18f2 <_Z15parse_argumentsiPPc+0x2b3>
    18f2:	48 89 c2             	mov    %rax,%rdx
    18f5:	48 8b 05 00 00 00 00 	mov    0x0(%rip),%rax        # 18fc <_Z15parse_argumentsiPPc+0x2bd>
    18fc:	48 89 c6             	mov    %rax,%rsi
    18ff:	48 89 d7             	mov    %rdx,%rdi
    1902:	e8 00 00 00 00       	callq  1907 <_Z15parse_argumentsiPPc+0x2c8>
              std::cout << "  --help               this help text" << std::endl;
    1907:	48 8d 35 00 00 00 00 	lea    0x0(%rip),%rsi        # 190e <_Z15parse_argumentsiPPc+0x2cf>
    190e:	48 8d 3d 00 00 00 00 	lea    0x0(%rip),%rdi        # 1915 <_Z15parse_argumentsiPPc+0x2d6>
    1915:	e8 00 00 00 00       	callq  191a <_Z15parse_argumentsiPPc+0x2db>
    191a:	48 89 c2             	mov    %rax,%rdx
    191d:	48 8b 05 00 00 00 00 	mov    0x0(%rip),%rax        # 1924 <_Z15parse_argumentsiPPc+0x2e5>
    1924:	48 89 c6             	mov    %rax,%rsi
    1927:	48 89 d7             	mov    %rdx,%rdi
    192a:	e8 00 00 00 00       	callq  192f <_Z15parse_argumentsiPPc+0x2f0>
              std::cout << "  --no_ppm             no PPM output is generated" << std::endl;
    192f:	48 8d 35 00 00 00 00 	lea    0x0(%rip),%rsi        # 1936 <_Z15parse_argumentsiPPc+0x2f7>
    1936:	48 8d 3d 00 00 00 00 	lea    0x0(%rip),%rdi        # 193d <_Z15parse_argumentsiPPc+0x2fe>
    193d:	e8 00 00 00 00       	callq  1942 <_Z15parse_argumentsiPPc+0x303>
    1942:	48 89 c2             	mov    %rax,%rdx
    1945:	48 8b 05 00 00 00 00 	mov    0x0(%rip),%rax        # 194c <_Z15parse_argumentsiPPc+0x30d>
    194c:	48 89 c6             	mov    %rax,%rsi
    194f:	48 89 d7             	mov    %rdx,%rdi
    1952:	e8 00 00 00 00       	callq  1957 <_Z15parse_argumentsiPPc+0x318>
              std::cout << "  -o BMP               BMP output file ('output.bmp')" << std::endl;
    1957:	48 8d 35 00 00 00 00 	lea    0x0(%rip),%rsi        # 195e <_Z15parse_argumentsiPPc+0x31f>
    195e:	48 8d 3d 00 00 00 00 	lea    0x0(%rip),%rdi        # 1965 <_Z15parse_argumentsiPPc+0x326>
    1965:	e8 00 00 00 00       	callq  196a <_Z15parse_argumentsiPPc+0x32b>
    196a:	48 89 c2             	mov    %rax,%rdx
    196d:	48 8b 05 00 00 00 00 	mov    0x0(%rip),%rax        # 1974 <_Z15parse_argumentsiPPc+0x335>
    1974:	48 89 c6             	mov    %rax,%rsi
    1977:	48 89 d7             	mov    %rdx,%rdi
    197a:	e8 00 00 00 00       	callq  197f <_Z15parse_argumentsiPPc+0x340>
              std::cout << "  -r                   reverse vertice order of triangles in input file" << std::endl;
    197f:	48 8d 35 00 00 00 00 	lea    0x0(%rip),%rsi        # 1986 <_Z15parse_argumentsiPPc+0x347>
    1986:	48 8d 3d 00 00 00 00 	lea    0x0(%rip),%rdi        # 198d <_Z15parse_argumentsiPPc+0x34e>
    198d:	e8 00 00 00 00       	callq  1992 <_Z15parse_argumentsiPPc+0x353>
    1992:	48 89 c2             	mov    %rax,%rdx
    1995:	48 8b 05 00 00 00 00 	mov    0x0(%rip),%rax        # 199c <_Z15parse_argumentsiPPc+0x35d>
    199c:	48 89 c6             	mov    %rax,%rsi
    199f:	48 89 d7             	mov    %rdx,%rdi
    19a2:	e8 00 00 00 00       	callq  19a7 <_Z15parse_argumentsiPPc+0x368>
              exit(0);
    19a7:	bf 00 00 00 00       	mov    $0x0,%edi
    19ac:	e8 00 00 00 00       	callq  19b1 <_Z15parse_argumentsiPPc+0x372>
  while ( (c = getopt_long (argc, argv, "ro:", long_options, &option_index)) != -1 ) {
    19b1:	e9 a8 fc ff ff       	jmpq   165e <_Z15parse_argumentsiPPc+0x1f>
    } 
  }

  std::cerr << "reading from       : " << input_file_name << std::endl;
    19b6:	48 8d 35 00 00 00 00 	lea    0x0(%rip),%rsi        # 19bd <_Z15parse_argumentsiPPc+0x37e>
    19bd:	48 8d 3d 00 00 00 00 	lea    0x0(%rip),%rdi        # 19c4 <_Z15parse_argumentsiPPc+0x385>
    19c4:	e8 00 00 00 00       	callq  19c9 <_Z15parse_argumentsiPPc+0x38a>
    19c9:	48 8d 35 00 00 00 00 	lea    0x0(%rip),%rsi        # 19d0 <_Z15parse_argumentsiPPc+0x391>
    19d0:	48 89 c7             	mov    %rax,%rdi
    19d3:	e8 00 00 00 00       	callq  19d8 <_Z15parse_argumentsiPPc+0x399>
    19d8:	48 89 c2             	mov    %rax,%rdx
    19db:	48 8b 05 00 00 00 00 	mov    0x0(%rip),%rax        # 19e2 <_Z15parse_argumentsiPPc+0x3a3>
    19e2:	48 89 c6             	mov    %rax,%rsi
    19e5:	48 89 d7             	mov    %rdx,%rdi
    19e8:	e8 00 00 00 00       	callq  19ed <_Z15parse_argumentsiPPc+0x3ae>
  std::cerr << "writing bmp to     : " << output_bmp_file_name << std::endl;
    19ed:	48 8d 35 00 00 00 00 	lea    0x0(%rip),%rsi        # 19f4 <_Z15parse_argumentsiPPc+0x3b5>
    19f4:	48 8d 3d 00 00 00 00 	lea    0x0(%rip),%rdi        # 19fb <_Z15parse_argumentsiPPc+0x3bc>
    19fb:	e8 00 00 00 00       	callq  1a00 <_Z15parse_argumentsiPPc+0x3c1>
    1a00:	48 8d 35 00 00 00 00 	lea    0x0(%rip),%rsi        # 1a07 <_Z15parse_argumentsiPPc+0x3c8>
    1a07:	48 89 c7             	mov    %rax,%rdi
    1a0a:	e8 00 00 00 00       	callq  1a0f <_Z15parse_argumentsiPPc+0x3d0>
    1a0f:	48 89 c2             	mov    %rax,%rdx
    1a12:	48 8b 05 00 00 00 00 	mov    0x0(%rip),%rax        # 1a19 <_Z15parse_argumentsiPPc+0x3da>
    1a19:	48 89 c6             	mov    %rax,%rsi
    1a1c:	48 89 d7             	mov    %rdx,%rdi
    1a1f:	e8 00 00 00 00       	callq  1a24 <_Z15parse_argumentsiPPc+0x3e5>
  std::cerr << "resolution x set to: " << resolution_x << std::endl;
    1a24:	48 8d 35 00 00 00 00 	lea    0x0(%rip),%rsi        # 1a2b <_Z15parse_argumentsiPPc+0x3ec>
    1a2b:	48 8d 3d 00 00 00 00 	lea    0x0(%rip),%rdi        # 1a32 <_Z15parse_argumentsiPPc+0x3f3>
    1a32:	e8 00 00 00 00       	callq  1a37 <_Z15parse_argumentsiPPc+0x3f8>
    1a37:	48 89 c2             	mov    %rax,%rdx
    1a3a:	8b 05 00 00 00 00    	mov    0x0(%rip),%eax        # 1a40 <_Z15parse_argumentsiPPc+0x401>
    1a40:	89 c6                	mov    %eax,%esi
    1a42:	48 89 d7             	mov    %rdx,%rdi
    1a45:	e8 00 00 00 00       	callq  1a4a <_Z15parse_argumentsiPPc+0x40b>
    1a4a:	48 89 c2             	mov    %rax,%rdx
    1a4d:	48 8b 05 00 00 00 00 	mov    0x0(%rip),%rax        # 1a54 <_Z15parse_argumentsiPPc+0x415>
    1a54:	48 89 c6             	mov    %rax,%rsi
    1a57:	48 89 d7             	mov    %rdx,%rdi
    1a5a:	e8 00 00 00 00       	callq  1a5f <_Z15parse_argumentsiPPc+0x420>
  std::cerr << "resolution y set to: " << resolution_y << std::endl;
    1a5f:	48 8d 35 00 00 00 00 	lea    0x0(%rip),%rsi        # 1a66 <_Z15parse_argumentsiPPc+0x427>
    1a66:	48 8d 3d 00 00 00 00 	lea    0x0(%rip),%rdi        # 1a6d <_Z15parse_argumentsiPPc+0x42e>
    1a6d:	e8 00 00 00 00       	callq  1a72 <_Z15parse_argumentsiPPc+0x433>
    1a72:	48 89 c2             	mov    %rax,%rdx
    1a75:	8b 05 00 00 00 00    	mov    0x0(%rip),%eax        # 1a7b <_Z15parse_argumentsiPPc+0x43c>
    1a7b:	89 c6                	mov    %eax,%esi
    1a7d:	48 89 d7             	mov    %rdx,%rdi
    1a80:	e8 00 00 00 00       	callq  1a85 <_Z15parse_argumentsiPPc+0x446>
    1a85:	48 89 c2             	mov    %rax,%rdx
    1a88:	48 8b 05 00 00 00 00 	mov    0x0(%rip),%rax        # 1a8f <_Z15parse_argumentsiPPc+0x450>
    1a8f:	48 89 c6             	mov    %rax,%rsi
    1a92:	48 89 d7             	mov    %rdx,%rdi
    1a95:	e8 00 00 00 00       	callq  1a9a <_Z15parse_argumentsiPPc+0x45b>
  std::cerr << "vertices reversed  : " << reverse_vertice_order << std::endl;
    1a9a:	48 8d 35 00 00 00 00 	lea    0x0(%rip),%rsi        # 1aa1 <_Z15parse_argumentsiPPc+0x462>
    1aa1:	48 8d 3d 00 00 00 00 	lea    0x0(%rip),%rdi        # 1aa8 <_Z15parse_argumentsiPPc+0x469>
    1aa8:	e8 00 00 00 00       	callq  1aad <_Z15parse_argumentsiPPc+0x46e>
    1aad:	48 89 c2             	mov    %rax,%rdx
    1ab0:	0f b6 05 00 00 00 00 	movzbl 0x0(%rip),%eax        # 1ab7 <_Z15parse_argumentsiPPc+0x478>
    1ab7:	0f b6 c0             	movzbl %al,%eax
    1aba:	89 c6                	mov    %eax,%esi
    1abc:	48 89 d7             	mov    %rdx,%rdi
    1abf:	e8 00 00 00 00       	callq  1ac4 <_Z15parse_argumentsiPPc+0x485>
    1ac4:	48 89 c2             	mov    %rax,%rdx
    1ac7:	48 8b 05 00 00 00 00 	mov    0x0(%rip),%rax        # 1ace <_Z15parse_argumentsiPPc+0x48f>
    1ace:	48 89 c6             	mov    %rax,%rsi
    1ad1:	48 89 d7             	mov    %rdx,%rdi
    1ad4:	e8 00 00 00 00       	callq  1ad9 <_Z15parse_argumentsiPPc+0x49a>
  std::cerr << "write ppm          : " << write_ppm_to_stdout << std::endl;
    1ad9:	48 8d 35 00 00 00 00 	lea    0x0(%rip),%rsi        # 1ae0 <_Z15parse_argumentsiPPc+0x4a1>
    1ae0:	48 8d 3d 00 00 00 00 	lea    0x0(%rip),%rdi        # 1ae7 <_Z15parse_argumentsiPPc+0x4a8>
    1ae7:	e8 00 00 00 00       	callq  1aec <_Z15parse_argumentsiPPc+0x4ad>
    1aec:	48 89 c2             	mov    %rax,%rdx
    1aef:	0f b6 05 00 00 00 00 	movzbl 0x0(%rip),%eax        # 1af6 <_Z15parse_argumentsiPPc+0x4b7>
    1af6:	0f b6 c0             	movzbl %al,%eax
    1af9:	89 c6                	mov    %eax,%esi
    1afb:	48 89 d7             	mov    %rdx,%rdi
    1afe:	e8 00 00 00 00       	callq  1b03 <_Z15parse_argumentsiPPc+0x4c4>
    1b03:	48 89 c2             	mov    %rax,%rdx
    1b06:	48 8b 05 00 00 00 00 	mov    0x0(%rip),%rax        # 1b0d <_Z15parse_argumentsiPPc+0x4ce>
    1b0d:	48 89 c6             	mov    %rax,%rsi
    1b10:	48 89 d7             	mov    %rdx,%rdi
    1b13:	e8 00 00 00 00       	callq  1b18 <_Z15parse_argumentsiPPc+0x4d9>
}
    1b18:	90                   	nop
    1b19:	48 8b 45 e8          	mov    -0x18(%rbp),%rax
    1b1d:	64 48 33 04 25 28 00 	xor    %fs:0x28,%rax
    1b24:	00 00 
    1b26:	0f 84 94 00 00 00    	je     1bc0 <_Z15parse_argumentsiPPc+0x581>
    1b2c:	e9 8a 00 00 00       	jmpq   1bbb <_Z15parse_argumentsiPPc+0x57c>
    1b31:	48 89 c3             	mov    %rax,%rbx
    case 'f': input_file_name = std::string(optarg);
    1b34:	48 8d 45 b7          	lea    -0x49(%rbp),%rax
    1b38:	48 89 c7             	mov    %rax,%rdi
    1b3b:	e8 00 00 00 00       	callq  1b40 <_Z15parse_argumentsiPPc+0x501>
    1b40:	48 89 d8             	mov    %rbx,%rax
    1b43:	48 89 c7             	mov    %rax,%rdi
    1b46:	e8 00 00 00 00       	callq  1b4b <_Z15parse_argumentsiPPc+0x50c>
    1b4b:	48 89 c3             	mov    %rax,%rbx
    case 'w': resolution_x = std::stoi(optarg);
    1b4e:	48 8d 45 c0          	lea    -0x40(%rbp),%rax
    1b52:	48 89 c7             	mov    %rax,%rdi
    1b55:	e8 00 00 00 00       	callq  1b5a <_Z15parse_argumentsiPPc+0x51b>
    1b5a:	eb 03                	jmp    1b5f <_Z15parse_argumentsiPPc+0x520>
    1b5c:	48 89 c3             	mov    %rax,%rbx
    1b5f:	48 8d 45 b7          	lea    -0x49(%rbp),%rax
    1b63:	48 89 c7             	mov    %rax,%rdi
    1b66:	e8 00 00 00 00       	callq  1b6b <_Z15parse_argumentsiPPc+0x52c>
    1b6b:	48 89 d8             	mov    %rbx,%rax
    1b6e:	48 89 c7             	mov    %rax,%rdi
    1b71:	e8 00 00 00 00       	callq  1b76 <_Z15parse_argumentsiPPc+0x537>
    1b76:	48 89 c3             	mov    %rax,%rbx
    case 'h': resolution_y = std::stoi(optarg);
    1b79:	48 8d 45 c0          	lea    -0x40(%rbp),%rax
    1b7d:	48 89 c7             	mov    %rax,%rdi
    1b80:	e8 00 00 00 00       	callq  1b85 <_Z15parse_argumentsiPPc+0x546>
    1b85:	eb 03                	jmp    1b8a <_Z15parse_argumentsiPPc+0x54b>
    1b87:	48 89 c3             	mov    %rax,%rbx
    1b8a:	48 8d 45 b7          	lea    -0x49(%rbp),%rax
    1b8e:	48 89 c7             	mov    %rax,%rdi
    1b91:	e8 00 00 00 00       	callq  1b96 <_Z15parse_argumentsiPPc+0x557>
    1b96:	48 89 d8             	mov    %rbx,%rax
    1b99:	48 89 c7             	mov    %rax,%rdi
    1b9c:	e8 00 00 00 00       	callq  1ba1 <_Z15parse_argumentsiPPc+0x562>
    1ba1:	48 89 c3             	mov    %rax,%rbx
    case 'o': output_bmp_file_name = std::string(optarg);
    1ba4:	48 8d 45 b7          	lea    -0x49(%rbp),%rax
    1ba8:	48 89 c7             	mov    %rax,%rdi
    1bab:	e8 00 00 00 00       	callq  1bb0 <_Z15parse_argumentsiPPc+0x571>
    1bb0:	48 89 d8             	mov    %rbx,%rax
    1bb3:	48 89 c7             	mov    %rax,%rdi
    1bb6:	e8 00 00 00 00       	callq  1bbb <_Z15parse_argumentsiPPc+0x57c>
}
    1bbb:	e8 00 00 00 00       	callq  1bc0 <_Z15parse_argumentsiPPc+0x581>
    1bc0:	48 83 c4 58          	add    $0x58,%rsp
    1bc4:	5b                   	pop    %rbx
    1bc5:	5d                   	pop    %rbp
    1bc6:	c3                   	retq   

0000000000001bc7 <main>:

int main(int argc, char *argv[]) {
    1bc7:	55                   	push   %rbp
    1bc8:	48 89 e5             	mov    %rsp,%rbp
    1bcb:	41 57                	push   %r15
    1bcd:	41 56                	push   %r14
    1bcf:	41 55                	push   %r13
    1bd1:	41 54                	push   %r12
    1bd3:	53                   	push   %rbx
    1bd4:	48 81 ec 38 05 00 00 	sub    $0x538,%rsp
    1bdb:	89 bd dc fa ff ff    	mov    %edi,-0x524(%rbp)
    1be1:	48 89 b5 d0 fa ff ff 	mov    %rsi,-0x530(%rbp)
    1be8:	64 48 8b 04 25 28 00 	mov    %fs:0x28,%rax
    1bef:	00 00 
    1bf1:	48 89 45 c8          	mov    %rax,-0x38(%rbp)
    1bf5:	31 c0                	xor    %eax,%eax
  parse_arguments(argc, argv);
    1bf7:	48 8b 95 d0 fa ff ff 	mov    -0x530(%rbp),%rdx
    1bfe:	8b 85 dc fa ff ff    	mov    -0x524(%rbp),%eax
    1c04:	48 89 d6             	mov    %rdx,%rsi
    1c07:	89 c7                	mov    %eax,%edi
    1c09:	e8 00 00 00 00       	callq  1c0e <main+0x47>
  Scene scene;
    1c0e:	48 8d 85 20 fb ff ff 	lea    -0x4e0(%rbp),%rax
    1c15:	48 89 c7             	mov    %rax,%rdi
    1c18:	e8 00 00 00 00       	callq  1c1d <main+0x56>
  scene.addLight( Light( Vector<FLOAT,3>{500.0, 500.0, 1000.0}) );
    1c1d:	48 8d 85 00 fb ff ff 	lea    -0x500(%rbp),%rax
    1c24:	c5 fa 10 15 00 00 00 	vmovss 0x0(%rip),%xmm2        # 1c2c <main+0x65>
    1c2b:	00 
    1c2c:	c5 fa 10 0d 00 00 00 	vmovss 0x0(%rip),%xmm1        # 1c34 <main+0x6d>
    1c33:	00 
    1c34:	c5 fa 10 05 00 00 00 	vmovss 0x0(%rip),%xmm0        # 1c3c <main+0x75>
    1c3b:	00 
    1c3c:	48 89 c7             	mov    %rax,%rdi
    1c3f:	e8 00 00 00 00       	callq  1c44 <main+0x7d>
    1c44:	48 8d 05 00 00 00 00 	lea    0x0(%rip),%rax        # 1c4b <main+0x84>
    1c4b:	48 89 85 a0 fa ff ff 	mov    %rax,-0x560(%rbp)
    1c52:	48 c7 85 a8 fa ff ff 	movq   $0x3,-0x558(%rbp)
    1c59:	03 00 00 00 
    1c5d:	48 8b 85 a0 fa ff ff 	mov    -0x560(%rbp),%rax
    1c64:	48 8b 95 a8 fa ff ff 	mov    -0x558(%rbp),%rdx
    1c6b:	48 89 c1             	mov    %rax,%rcx
    1c6e:	48 89 d3             	mov    %rdx,%rbx
    1c71:	48 8d 85 c0 fb ff ff 	lea    -0x440(%rbp),%rax
    1c78:	48 89 ce             	mov    %rcx,%rsi
    1c7b:	48 89 c7             	mov    %rax,%rdi
    1c7e:	e8 00 00 00 00       	callq  1c83 <main+0xbc>
    1c83:	48 8b b5 00 fb ff ff 	mov    -0x500(%rbp),%rsi
    1c8a:	c5 fa 10 85 08 fb ff 	vmovss -0x4f8(%rbp),%xmm0
    1c91:	ff 
    1c92:	48 8b 8d c0 fb ff ff 	mov    -0x440(%rbp),%rcx
    1c99:	8b 95 c8 fb ff ff    	mov    -0x438(%rbp),%edx
    1c9f:	48 8d 85 c0 fd ff ff 	lea    -0x240(%rbp),%rax
    1ca6:	48 89 b5 a0 fa ff ff 	mov    %rsi,-0x560(%rbp)
    1cad:	c5 fa 7e 95 a0 fa ff 	vmovq  -0x560(%rbp),%xmm2
    1cb4:	ff 
    1cb5:	c5 f8 28 d8          	vmovaps %xmm0,%xmm3
    1cb9:	48 89 8d a0 fa ff ff 	mov    %rcx,-0x560(%rbp)
    1cc0:	c5 fa 7e 85 a0 fa ff 	vmovq  -0x560(%rbp),%xmm0
    1cc7:	ff 
    1cc8:	48 89 95 a0 fa ff ff 	mov    %rdx,-0x560(%rbp)
    1ccf:	c5 fa 7e 8d a0 fa ff 	vmovq  -0x560(%rbp),%xmm1
    1cd6:	ff 
    1cd7:	48 89 c7             	mov    %rax,%rdi
    1cda:	e8 00 00 00 00       	callq  1cdf <main+0x118>
    1cdf:	48 8d 85 20 fb ff ff 	lea    -0x4e0(%rbp),%rax
    1ce6:	48 83 ec 08          	sub    $0x8,%rsp
    1cea:	ff b5 d0 fd ff ff    	pushq  -0x230(%rbp)
    1cf0:	ff b5 c8 fd ff ff    	pushq  -0x238(%rbp)
    1cf6:	ff b5 c0 fd ff ff    	pushq  -0x240(%rbp)
    1cfc:	48 89 c7             	mov    %rax,%rdi
    1cff:	e8 00 00 00 00       	callq  1d04 <main+0x13d>
    1d04:	48 83 c4 20          	add    $0x20,%rsp
  std::ifstream input(input_file_name);
    1d08:	48 8d 85 c0 fd ff ff 	lea    -0x240(%rbp),%rax
    1d0f:	ba 08 00 00 00       	mov    $0x8,%edx
    1d14:	48 8d 35 00 00 00 00 	lea    0x0(%rip),%rsi        # 1d1b <main+0x154>
    1d1b:	48 89 c7             	mov    %rax,%rdi
    1d1e:	e8 00 00 00 00       	callq  1d23 <main+0x15c>
  std::ofstream output(output_bmp_file_name, std::ofstream::binary); // for windows
    1d23:	48 8d 85 c0 fb ff ff 	lea    -0x440(%rbp),%rax
    1d2a:	ba 04 00 00 00       	mov    $0x4,%edx
    1d2f:	48 8d 35 00 00 00 00 	lea    0x0(%rip),%rsi        # 1d36 <main+0x16f>
    1d36:	48 89 c7             	mov    %rax,%rdi
    1d39:	e8 00 00 00 00       	callq  1d3e <main+0x177>
  read_wavefront(input, scene);
    1d3e:	48 8d 95 20 fb ff ff 	lea    -0x4e0(%rbp),%rdx
    1d45:	48 8d 85 c0 fd ff ff 	lea    -0x240(%rbp),%rax
    1d4c:	48 89 d6             	mov    %rdx,%rsi
    1d4f:	48 89 c7             	mov    %rax,%rdi
    1d52:	e8 00 00 00 00       	callq  1d57 <main+0x190>
  std::vector<Triangle<FLOAT> *> triangles = scene.getTriangles();
    1d57:	48 8d 85 e0 fa ff ff 	lea    -0x520(%rbp),%rax
    1d5e:	48 8d 95 20 fb ff ff 	lea    -0x4e0(%rbp),%rdx
    1d65:	48 89 d6             	mov    %rdx,%rsi
    1d68:	48 89 c7             	mov    %rax,%rdi
    1d6b:	e8 00 00 00 00       	callq  1d70 <main+0x1a9>
  Screen screen(resolution_x, resolution_y);
    1d70:	8b 05 00 00 00 00    	mov    0x0(%rip),%eax        # 1d76 <main+0x1af>
    1d76:	48 63 d0             	movslq %eax,%rdx
    1d79:	8b 05 00 00 00 00    	mov    0x0(%rip),%eax        # 1d7f <main+0x1b8>
    1d7f:	48 63 c8             	movslq %eax,%rcx
    1d82:	48 8d 85 00 fb ff ff 	lea    -0x500(%rbp),%rax
    1d89:	48 89 ce             	mov    %rcx,%rsi
    1d8c:	48 89 c7             	mov    %rax,%rdi
    1d8f:	e8 00 00 00 00       	callq  1d94 <main+0x1cd>
  // camera for teapot_large.obj
  Camera camera( Vector<FLOAT, 3>( {  0.05, 1.0, 200.0} ),
                 Vector<FLOAT, 3>( {  0.05, 1.0, 100.0} ),
                 Vector<FLOAT, 3>( {  0.0, 1.6, 0.0} ),
                 Vector<FLOAT, 3>( {  1.6, 0.0,  0.0} ),
                 screen );
    1d94:	48 8d 05 00 00 00 00 	lea    0x0(%rip),%rax        # 1d9b <main+0x1d4>
    1d9b:	48 89 85 b0 fa ff ff 	mov    %rax,-0x550(%rbp)
    1da2:	48 c7 85 b8 fa ff ff 	movq   $0x3,-0x548(%rbp)
    1da9:	03 00 00 00 
    1dad:	48 8b 85 b0 fa ff ff 	mov    -0x550(%rbp),%rax
    1db4:	48 8b 95 b8 fa ff ff 	mov    -0x548(%rbp),%rdx
    1dbb:	48 89 c1             	mov    %rax,%rcx
    1dbe:	48 89 d3             	mov    %rdx,%rbx
    1dc1:	48 8d 85 74 fb ff ff 	lea    -0x48c(%rbp),%rax
    1dc8:	48 89 ce             	mov    %rcx,%rsi
    1dcb:	48 89 c7             	mov    %rax,%rdi
    1dce:	e8 00 00 00 00       	callq  1dd3 <main+0x20c>
    1dd3:	48 8d 05 00 00 00 00 	lea    0x0(%rip),%rax        # 1dda <main+0x213>
    1dda:	48 89 85 c0 fa ff ff 	mov    %rax,-0x540(%rbp)
    1de1:	48 c7 85 c8 fa ff ff 	movq   $0x3,-0x538(%rbp)
    1de8:	03 00 00 00 
    1dec:	48 8b 85 c0 fa ff ff 	mov    -0x540(%rbp),%rax
    1df3:	48 8b 95 c8 fa ff ff 	mov    -0x538(%rbp),%rdx
    1dfa:	48 89 c1             	mov    %rax,%rcx
    1dfd:	48 89 d3             	mov    %rdx,%rbx
    1e00:	48 8d 85 68 fb ff ff 	lea    -0x498(%rbp),%rax
    1e07:	48 89 ce             	mov    %rcx,%rsi
    1e0a:	48 89 c7             	mov    %rax,%rdi
    1e0d:	e8 00 00 00 00       	callq  1e12 <main+0x24b>
    1e12:	4c 8d 35 00 00 00 00 	lea    0x0(%rip),%r14        # 1e19 <main+0x252>
    1e19:	41 bf 03 00 00 00    	mov    $0x3,%r15d
    1e1f:	4c 89 f1             	mov    %r14,%rcx
    1e22:	4c 89 fb             	mov    %r15,%rbx
    1e25:	4c 89 f0             	mov    %r14,%rax
    1e28:	4c 89 fa             	mov    %r15,%rdx
    1e2b:	48 8d 85 5c fb ff ff 	lea    -0x4a4(%rbp),%rax
    1e32:	48 89 ce             	mov    %rcx,%rsi
    1e35:	48 89 c7             	mov    %rax,%rdi
    1e38:	e8 00 00 00 00       	callq  1e3d <main+0x276>
    1e3d:	4c 8d 25 00 00 00 00 	lea    0x0(%rip),%r12        # 1e44 <main+0x27d>
    1e44:	41 bd 03 00 00 00    	mov    $0x3,%r13d
    1e4a:	4c 89 e1             	mov    %r12,%rcx
    1e4d:	4c 89 eb             	mov    %r13,%rbx
    1e50:	4c 89 e0             	mov    %r12,%rax
    1e53:	4c 89 ea             	mov    %r13,%rdx
    1e56:	48 8d 85 50 fb ff ff 	lea    -0x4b0(%rbp),%rax
    1e5d:	48 89 ce             	mov    %rcx,%rsi
    1e60:	48 89 c7             	mov    %rax,%rdi
    1e63:	e8 00 00 00 00       	callq  1e68 <main+0x2a1>
    1e68:	48 8d 95 00 fb ff ff 	lea    -0x500(%rbp),%rdx
    1e6f:	4c 8b a5 74 fb ff ff 	mov    -0x48c(%rbp),%r12
    1e76:	8b 9d 7c fb ff ff    	mov    -0x484(%rbp),%ebx
    1e7c:	4c 8b 9d 68 fb ff ff 	mov    -0x498(%rbp),%r11
    1e83:	44 8b 95 70 fb ff ff 	mov    -0x490(%rbp),%r10d
    1e8a:	4c 8b 8d 5c fb ff ff 	mov    -0x4a4(%rbp),%r9
    1e91:	44 8b 85 64 fb ff ff 	mov    -0x49c(%rbp),%r8d
    1e98:	48 8b bd 50 fb ff ff 	mov    -0x4b0(%rbp),%rdi
    1e9f:	8b 8d 58 fb ff ff    	mov    -0x4a8(%rbp),%ecx
    1ea5:	48 8d 85 80 fb ff ff 	lea    -0x480(%rbp),%rax
    1eac:	48 89 d6             	mov    %rdx,%rsi
    1eaf:	4c 89 a5 c0 fa ff ff 	mov    %r12,-0x540(%rbp)
    1eb6:	c5 fa 7e b5 c0 fa ff 	vmovq  -0x540(%rbp),%xmm6
    1ebd:	ff 
    1ebe:	48 89 9d c0 fa ff ff 	mov    %rbx,-0x540(%rbp)
    1ec5:	c5 fa 7e bd c0 fa ff 	vmovq  -0x540(%rbp),%xmm7
    1ecc:	ff 
    1ecd:	4c 89 9d c0 fa ff ff 	mov    %r11,-0x540(%rbp)
    1ed4:	c5 fa 7e a5 c0 fa ff 	vmovq  -0x540(%rbp),%xmm4
    1edb:	ff 
    1edc:	4c 89 95 c0 fa ff ff 	mov    %r10,-0x540(%rbp)
    1ee3:	c5 fa 7e ad c0 fa ff 	vmovq  -0x540(%rbp),%xmm5
    1eea:	ff 
    1eeb:	4c 89 8d c0 fa ff ff 	mov    %r9,-0x540(%rbp)
    1ef2:	c5 fa 7e 95 c0 fa ff 	vmovq  -0x540(%rbp),%xmm2
    1ef9:	ff 
    1efa:	4c 89 85 c0 fa ff ff 	mov    %r8,-0x540(%rbp)
    1f01:	c5 fa 7e 9d c0 fa ff 	vmovq  -0x540(%rbp),%xmm3
    1f08:	ff 
    1f09:	48 89 bd c0 fa ff ff 	mov    %rdi,-0x540(%rbp)
    1f10:	c5 fa 7e 85 c0 fa ff 	vmovq  -0x540(%rbp),%xmm0
    1f17:	ff 
    1f18:	48 89 8d c0 fa ff ff 	mov    %rcx,-0x540(%rbp)
    1f1f:	c5 fa 7e 8d c0 fa ff 	vmovq  -0x540(%rbp),%xmm1
    1f26:	ff 
    1f27:	48 89 c7             	mov    %rax,%rdi
    1f2a:	e8 00 00 00 00       	callq  1f2f <main+0x368>

  stats.time_start();
    1f2f:	48 8d 3d 00 00 00 00 	lea    0x0(%rip),%rdi        # 1f36 <main+0x36f>
    1f36:	e8 00 00 00 00       	callq  1f3b <main+0x374>
#ifndef USE_KDTREE
  raytrace(camera, scene, screen);
    1f3b:	48 8d 95 00 fb ff ff 	lea    -0x500(%rbp),%rdx
    1f42:	48 8d b5 20 fb ff ff 	lea    -0x4e0(%rbp),%rsi
    1f49:	48 8d 85 80 fb ff ff 	lea    -0x480(%rbp),%rax
    1f50:	b9 00 00 00 00       	mov    $0x0,%ecx
    1f55:	48 89 c7             	mov    %rax,%rdi
    1f58:	e8 00 00 00 00       	callq  1f5d <main+0x396>
#else
  std::unique_ptr<KDTree> tree =  std::unique_ptr<KDTree>( KDTree::buildTree( triangles ) );
  raytrace(camera, scene, screen, tree.get());
#endif
  stats.time_stop();
    1f5d:	48 8d 3d 00 00 00 00 	lea    0x0(%rip),%rdi        # 1f64 <main+0x39d>
    1f64:	e8 00 00 00 00       	callq  1f69 <main+0x3a2>
  if (write_ppm_to_stdout) {
    1f69:	0f b6 05 00 00 00 00 	movzbl 0x0(%rip),%eax        # 1f70 <main+0x3a9>
    1f70:	84 c0                	test   %al,%al
    1f72:	74 16                	je     1f8a <main+0x3c3>
    std::cout << screen; // write image in PPM format to the standard output
    1f74:	48 8d 85 00 fb ff ff 	lea    -0x500(%rbp),%rax
    1f7b:	48 89 c6             	mov    %rax,%rsi
    1f7e:	48 8d 3d 00 00 00 00 	lea    0x0(%rip),%rdi        # 1f85 <main+0x3be>
    1f85:	e8 00 00 00 00       	callq  1f8a <main+0x3c3>
  }
  write_bmp(output, screen);
    1f8a:	48 8d 95 00 fb ff ff 	lea    -0x500(%rbp),%rdx
    1f91:	48 8d 85 c0 fb ff ff 	lea    -0x440(%rbp),%rax
    1f98:	48 89 d6             	mov    %rdx,%rsi
    1f9b:	48 89 c7             	mov    %rax,%rdi
    1f9e:	e8 00 00 00 00       	callq  1fa3 <main+0x3dc>
  output.close();
    1fa3:	48 8d 85 c0 fb ff ff 	lea    -0x440(%rbp),%rax
    1faa:	48 89 c7             	mov    %rax,%rdi
    1fad:	e8 00 00 00 00       	callq  1fb2 <main+0x3eb>
  stats.print();
    1fb2:	48 8d 3d 00 00 00 00 	lea    0x0(%rip),%rdi        # 1fb9 <main+0x3f2>
    1fb9:	e8 00 00 00 00       	callq  1fbe <main+0x3f7>

  return 0;
    1fbe:	bb 00 00 00 00       	mov    $0x0,%ebx
  Screen screen(resolution_x, resolution_y);
    1fc3:	48 8d 85 00 fb ff ff 	lea    -0x500(%rbp),%rax
    1fca:	48 89 c7             	mov    %rax,%rdi
    1fcd:	e8 00 00 00 00       	callq  1fd2 <main+0x40b>
  std::vector<Triangle<FLOAT> *> triangles = scene.getTriangles();
    1fd2:	48 8d 85 e0 fa ff ff 	lea    -0x520(%rbp),%rax
    1fd9:	48 89 c7             	mov    %rax,%rdi
    1fdc:	e8 00 00 00 00       	callq  1fe1 <main+0x41a>
  std::ofstream output(output_bmp_file_name, std::ofstream::binary); // for windows
    1fe1:	48 8d 85 c0 fb ff ff 	lea    -0x440(%rbp),%rax
    1fe8:	48 89 c7             	mov    %rax,%rdi
    1feb:	e8 00 00 00 00       	callq  1ff0 <main+0x429>
  std::ifstream input(input_file_name);
    1ff0:	48 8d 85 c0 fd ff ff 	lea    -0x240(%rbp),%rax
    1ff7:	48 89 c7             	mov    %rax,%rdi
    1ffa:	e8 00 00 00 00       	callq  1fff <main+0x438>
  Scene scene;
    1fff:	48 8d 85 20 fb ff ff 	lea    -0x4e0(%rbp),%rax
    2006:	48 89 c7             	mov    %rax,%rdi
    2009:	e8 00 00 00 00       	callq  200e <main+0x447>
    200e:	89 d8                	mov    %ebx,%eax
}
    2010:	48 8b 5d c8          	mov    -0x38(%rbp),%rbx
    2014:	64 48 33 1c 25 28 00 	xor    %fs:0x28,%rbx
    201b:	00 00 
    201d:	74 74                	je     2093 <main+0x4cc>
    201f:	eb 6d                	jmp    208e <main+0x4c7>
    2021:	48 89 c3             	mov    %rax,%rbx
  Screen screen(resolution_x, resolution_y);
    2024:	48 8d 85 00 fb ff ff 	lea    -0x500(%rbp),%rax
    202b:	48 89 c7             	mov    %rax,%rdi
    202e:	e8 00 00 00 00       	callq  2033 <main+0x46c>
    2033:	eb 03                	jmp    2038 <main+0x471>
    2035:	48 89 c3             	mov    %rax,%rbx
  std::vector<Triangle<FLOAT> *> triangles = scene.getTriangles();
    2038:	48 8d 85 e0 fa ff ff 	lea    -0x520(%rbp),%rax
    203f:	48 89 c7             	mov    %rax,%rdi
    2042:	e8 00 00 00 00       	callq  2047 <main+0x480>
    2047:	eb 03                	jmp    204c <main+0x485>
    2049:	48 89 c3             	mov    %rax,%rbx
  std::ofstream output(output_bmp_file_name, std::ofstream::binary); // for windows
    204c:	48 8d 85 c0 fb ff ff 	lea    -0x440(%rbp),%rax
    2053:	48 89 c7             	mov    %rax,%rdi
    2056:	e8 00 00 00 00       	callq  205b <main+0x494>
    205b:	eb 03                	jmp    2060 <main+0x499>
    205d:	48 89 c3             	mov    %rax,%rbx
  std::ifstream input(input_file_name);
    2060:	48 8d 85 c0 fd ff ff 	lea    -0x240(%rbp),%rax
    2067:	48 89 c7             	mov    %rax,%rdi
    206a:	e8 00 00 00 00       	callq  206f <main+0x4a8>
    206f:	eb 03                	jmp    2074 <main+0x4ad>
    2071:	48 89 c3             	mov    %rax,%rbx
  Scene scene;
    2074:	48 8d 85 20 fb ff ff 	lea    -0x4e0(%rbp),%rax
    207b:	48 89 c7             	mov    %rax,%rdi
    207e:	e8 00 00 00 00       	callq  2083 <main+0x4bc>
    2083:	48 89 d8             	mov    %rbx,%rax
    2086:	48 89 c7             	mov    %rax,%rdi
    2089:	e8 00 00 00 00       	callq  208e <main+0x4c7>
}
    208e:	e8 00 00 00 00       	callq  2093 <main+0x4cc>
    2093:	48 8d 65 d8          	lea    -0x28(%rbp),%rsp
    2097:	5b                   	pop    %rbx
    2098:	41 5c                	pop    %r12
    209a:	41 5d                	pop    %r13
    209c:	41 5e                	pop    %r14
    209e:	41 5f                	pop    %r15
    20a0:	5d                   	pop    %rbp
    20a1:	c3                   	retq   

00000000000020a2 <_Z41__static_initialization_and_destruction_0ii>:
    20a2:	55                   	push   %rbp
    20a3:	48 89 e5             	mov    %rsp,%rbp
    20a6:	53                   	push   %rbx
    20a7:	48 83 ec 28          	sub    $0x28,%rsp
    20ab:	89 7d dc             	mov    %edi,-0x24(%rbp)
    20ae:	89 75 d8             	mov    %esi,-0x28(%rbp)
    20b1:	64 48 8b 04 25 28 00 	mov    %fs:0x28,%rax
    20b8:	00 00 
    20ba:	48 89 45 e8          	mov    %rax,-0x18(%rbp)
    20be:	31 c0                	xor    %eax,%eax
    20c0:	83 7d dc 01          	cmpl   $0x1,-0x24(%rbp)
    20c4:	0f 85 0a 01 00 00    	jne    21d4 <_Z41__static_initialization_and_destruction_0ii+0x132>
    20ca:	81 7d d8 ff ff 00 00 	cmpl   $0xffff,-0x28(%rbp)
    20d1:	0f 85 fd 00 00 00    	jne    21d4 <_Z41__static_initialization_and_destruction_0ii+0x132>
  extern wostream wclog;	/// Linked to standard error (buffered)
#endif
  //@}

  // For construction of filebuffers for cout, cin, cerr, clog et. al.
  static ios_base::Init __ioinit;
    20d7:	48 8d 3d 00 00 00 00 	lea    0x0(%rip),%rdi        # 20de <_Z41__static_initialization_and_destruction_0ii+0x3c>
    20de:	e8 00 00 00 00       	callq  20e3 <_Z41__static_initialization_and_destruction_0ii+0x41>
    20e3:	48 8d 15 00 00 00 00 	lea    0x0(%rip),%rdx        # 20ea <_Z41__static_initialization_and_destruction_0ii+0x48>
    20ea:	48 8d 35 00 00 00 00 	lea    0x0(%rip),%rsi        # 20f1 <_Z41__static_initialization_and_destruction_0ii+0x4f>
    20f1:	48 8b 05 00 00 00 00 	mov    0x0(%rip),%rax        # 20f8 <_Z41__static_initialization_and_destruction_0ii+0x56>
    20f8:	48 89 c7             	mov    %rax,%rdi
    20fb:	e8 00 00 00 00       	callq  2100 <_Z41__static_initialization_and_destruction_0ii+0x5e>
static std::string input_file_name = "examples/teapot.obj";
    2100:	48 8d 45 e7          	lea    -0x19(%rbp),%rax
    2104:	48 89 c7             	mov    %rax,%rdi
    2107:	e8 00 00 00 00       	callq  210c <_Z41__static_initialization_and_destruction_0ii+0x6a>
    210c:	48 8d 45 e7          	lea    -0x19(%rbp),%rax
    2110:	48 89 c2             	mov    %rax,%rdx
    2113:	48 8d 35 00 00 00 00 	lea    0x0(%rip),%rsi        # 211a <_Z41__static_initialization_and_destruction_0ii+0x78>
    211a:	48 8d 3d 00 00 00 00 	lea    0x0(%rip),%rdi        # 2121 <_Z41__static_initialization_and_destruction_0ii+0x7f>
    2121:	e8 00 00 00 00       	callq  2126 <_Z41__static_initialization_and_destruction_0ii+0x84>
    2126:	48 8d 45 e7          	lea    -0x19(%rbp),%rax
    212a:	48 89 c7             	mov    %rax,%rdi
    212d:	e8 00 00 00 00       	callq  2132 <_Z41__static_initialization_and_destruction_0ii+0x90>
    2132:	48 8d 15 00 00 00 00 	lea    0x0(%rip),%rdx        # 2139 <_Z41__static_initialization_and_destruction_0ii+0x97>
    2139:	48 8d 35 00 00 00 00 	lea    0x0(%rip),%rsi        # 2140 <_Z41__static_initialization_and_destruction_0ii+0x9e>
    2140:	48 8b 05 00 00 00 00 	mov    0x0(%rip),%rax        # 2147 <_Z41__static_initialization_and_destruction_0ii+0xa5>
    2147:	48 89 c7             	mov    %rax,%rdi
    214a:	e8 00 00 00 00       	callq  214f <_Z41__static_initialization_and_destruction_0ii+0xad>
static std::string output_bmp_file_name = "output.bmp";
    214f:	48 8d 45 e7          	lea    -0x19(%rbp),%rax
    2153:	48 89 c7             	mov    %rax,%rdi
    2156:	e8 00 00 00 00       	callq  215b <_Z41__static_initialization_and_destruction_0ii+0xb9>
    215b:	48 8d 45 e7          	lea    -0x19(%rbp),%rax
    215f:	48 89 c2             	mov    %rax,%rdx
    2162:	48 8d 35 00 00 00 00 	lea    0x0(%rip),%rsi        # 2169 <_Z41__static_initialization_and_destruction_0ii+0xc7>
    2169:	48 8d 3d 00 00 00 00 	lea    0x0(%rip),%rdi        # 2170 <_Z41__static_initialization_and_destruction_0ii+0xce>
    2170:	e8 00 00 00 00       	callq  2175 <_Z41__static_initialization_and_destruction_0ii+0xd3>
    2175:	48 8d 45 e7          	lea    -0x19(%rbp),%rax
    2179:	48 89 c7             	mov    %rax,%rdi
    217c:	e8 00 00 00 00       	callq  2181 <_Z41__static_initialization_and_destruction_0ii+0xdf>
    2181:	48 8d 15 00 00 00 00 	lea    0x0(%rip),%rdx        # 2188 <_Z41__static_initialization_and_destruction_0ii+0xe6>
    2188:	48 8d 35 00 00 00 00 	lea    0x0(%rip),%rsi        # 218f <_Z41__static_initialization_and_destruction_0ii+0xed>
    218f:	48 8b 05 00 00 00 00 	mov    0x0(%rip),%rax        # 2196 <_Z41__static_initialization_and_destruction_0ii+0xf4>
    2196:	48 89 c7             	mov    %rax,%rdi
    2199:	e8 00 00 00 00       	callq  219e <_Z41__static_initialization_and_destruction_0ii+0xfc>
}
    219e:	eb 34                	jmp    21d4 <_Z41__static_initialization_and_destruction_0ii+0x132>
    21a0:	48 89 c3             	mov    %rax,%rbx
static std::string input_file_name = "examples/teapot.obj";
    21a3:	48 8d 45 e7          	lea    -0x19(%rbp),%rax
    21a7:	48 89 c7             	mov    %rax,%rdi
    21aa:	e8 00 00 00 00       	callq  21af <_Z41__static_initialization_and_destruction_0ii+0x10d>
    21af:	48 89 d8             	mov    %rbx,%rax
    21b2:	48 89 c7             	mov    %rax,%rdi
    21b5:	e8 00 00 00 00       	callq  21ba <_Z41__static_initialization_and_destruction_0ii+0x118>
    21ba:	48 89 c3             	mov    %rax,%rbx
static std::string output_bmp_file_name = "output.bmp";
    21bd:	48 8d 45 e7          	lea    -0x19(%rbp),%rax
    21c1:	48 89 c7             	mov    %rax,%rdi
    21c4:	e8 00 00 00 00       	callq  21c9 <_Z41__static_initialization_and_destruction_0ii+0x127>
    21c9:	48 89 d8             	mov    %rbx,%rax
    21cc:	48 89 c7             	mov    %rax,%rdi
    21cf:	e8 00 00 00 00       	callq  21d4 <_Z41__static_initialization_and_destruction_0ii+0x132>
}
    21d4:	48 8b 45 e8          	mov    -0x18(%rbp),%rax
    21d8:	64 48 33 04 25 28 00 	xor    %fs:0x28,%rax
    21df:	00 00 
    21e1:	74 05                	je     21e8 <_Z41__static_initialization_and_destruction_0ii+0x146>
    21e3:	e8 00 00 00 00       	callq  21e8 <_Z41__static_initialization_and_destruction_0ii+0x146>
    21e8:	48 83 c4 28          	add    $0x28,%rsp
    21ec:	5b                   	pop    %rbx
    21ed:	5d                   	pop    %rbp
    21ee:	c3                   	retq   

00000000000021ef <_GLOBAL__sub_I__ZlsRSoRK6Screen>:
    21ef:	55                   	push   %rbp
    21f0:	48 89 e5             	mov    %rsp,%rbp
    21f3:	be ff ff 00 00       	mov    $0xffff,%esi
    21f8:	bf 01 00 00 00       	mov    $0x1,%edi
    21fd:	e8 a0 fe ff ff       	callq  20a2 <_Z41__static_initialization_and_destruction_0ii>
    2202:	5d                   	pop    %rbp
    2203:	c3                   	retq   

Disassembly of section .text._ZnwmPv:

0000000000000000 <_ZnwmPv>:
#endif // __cpp_sized_deallocation
#endif // __cpp_aligned_new

// Default placement versions of operator new.
inline void* operator new(std::size_t, void* __p) _GLIBCXX_USE_NOEXCEPT
{ return __p; }
   0:	55                   	push   %rbp
   1:	48 89 e5             	mov    %rsp,%rbp
   4:	48 89 7d f8          	mov    %rdi,-0x8(%rbp)
   8:	48 89 75 f0          	mov    %rsi,-0x10(%rbp)
   c:	48 8b 45 f0          	mov    -0x10(%rbp),%rax
  10:	5d                   	pop    %rbp
  11:	c3                   	retq   

Disassembly of section .text._ZNSt7__cxx114stoiERKNS_12basic_stringIcSt11char_traitsIcESaIcEEEPmi:

0000000000000000 <_ZNSt7__cxx114stoiERKNS_12basic_stringIcSt11char_traitsIcESaIcEEEPmi>:

#if _GLIBCXX_USE_C99_STDLIB
  // 21.4 Numeric Conversions [string.conversions].
  inline int
  stoi(const string& __str, size_t* __idx = 0, int __base = 10)
  { return __gnu_cxx::__stoa<long, int>(&std::strtol, "stoi", __str.c_str(),
   0:	55                   	push   %rbp
   1:	48 89 e5             	mov    %rsp,%rbp
   4:	48 83 ec 20          	sub    $0x20,%rsp
   8:	48 89 7d f8          	mov    %rdi,-0x8(%rbp)
   c:	48 89 75 f0          	mov    %rsi,-0x10(%rbp)
  10:	89 55 ec             	mov    %edx,-0x14(%rbp)
  13:	48 8b 45 f8          	mov    -0x8(%rbp),%rax
  17:	48 89 c7             	mov    %rax,%rdi
  1a:	e8 00 00 00 00       	callq  1f <_ZNSt7__cxx114stoiERKNS_12basic_stringIcSt11char_traitsIcESaIcEEEPmi+0x1f>
  1f:	48 89 c6             	mov    %rax,%rsi
					__idx, __base); }
  22:	8b 55 ec             	mov    -0x14(%rbp),%edx
  25:	48 8b 45 f0          	mov    -0x10(%rbp),%rax
  29:	41 89 d0             	mov    %edx,%r8d
  2c:	48 89 c1             	mov    %rax,%rcx
  2f:	48 89 f2             	mov    %rsi,%rdx
  32:	48 8d 35 00 00 00 00 	lea    0x0(%rip),%rsi        # 39 <_ZNSt7__cxx114stoiERKNS_12basic_stringIcSt11char_traitsIcESaIcEEEPmi+0x39>
  39:	48 8b 05 00 00 00 00 	mov    0x0(%rip),%rax        # 40 <_ZNSt7__cxx114stoiERKNS_12basic_stringIcSt11char_traitsIcESaIcEEEPmi+0x40>
  40:	48 89 c7             	mov    %rax,%rdi
  43:	e8 00 00 00 00       	callq  48 <_ZNSt7__cxx114stoiERKNS_12basic_stringIcSt11char_traitsIcESaIcEEEPmi+0x48>
  48:	c9                   	leaveq 
  49:	c3                   	retq   

Disassembly of section .text._ZNSt14numeric_limitsIlE3maxEv:

0000000000000000 <_ZNSt14numeric_limitsIlE3maxEv>:

      static _GLIBCXX_CONSTEXPR long
      min() _GLIBCXX_USE_NOEXCEPT { return -__LONG_MAX__ - 1; }

      static _GLIBCXX_CONSTEXPR long
      max() _GLIBCXX_USE_NOEXCEPT { return __LONG_MAX__; }
   0:	55                   	push   %rbp
   1:	48 89 e5             	mov    %rsp,%rbp
   4:	48 b8 ff ff ff ff ff 	movabs $0x7fffffffffffffff,%rax
   b:	ff ff 7f 
   e:	5d                   	pop    %rbp
   f:	c3                   	retq   

Disassembly of section .text._ZN5ColorC2Efff:

0000000000000000 <_ZN5ColorC1Efff>:
  Color(FLOAT red = 0.0, FLOAT green = 0.0, FLOAT blue = 0.0)
   0:	55                   	push   %rbp
   1:	48 89 e5             	mov    %rsp,%rbp
   4:	48 89 7d f8          	mov    %rdi,-0x8(%rbp)
   8:	c5 fa 11 45 f4       	vmovss %xmm0,-0xc(%rbp)
   d:	c5 fa 11 4d f0       	vmovss %xmm1,-0x10(%rbp)
  12:	c5 fa 11 55 ec       	vmovss %xmm2,-0x14(%rbp)
     : red(red), green(green), blue(blue)
  17:	48 8b 45 f8          	mov    -0x8(%rbp),%rax
  1b:	c5 fa 10 45 f4       	vmovss -0xc(%rbp),%xmm0
  20:	c5 fa 11 00          	vmovss %xmm0,(%rax)
  24:	48 8b 45 f8          	mov    -0x8(%rbp),%rax
  28:	c5 fa 10 45 f0       	vmovss -0x10(%rbp),%xmm0
  2d:	c5 fa 11 40 04       	vmovss %xmm0,0x4(%rax)
  32:	48 8b 45 f8          	mov    -0x8(%rbp),%rax
  36:	c5 fa 10 45 ec       	vmovss -0x14(%rbp),%xmm0
  3b:	c5 fa 11 40 08       	vmovss %xmm0,0x8(%rax)
  }
  40:	90                   	nop
  41:	5d                   	pop    %rbp
  42:	c3                   	retq   

Disassembly of section .text._ZNK5Color6getRedEv:

0000000000000000 <_ZNK5Color6getRedEv>:
  FLOAT getRed() const {
   0:	55                   	push   %rbp
   1:	48 89 e5             	mov    %rsp,%rbp
   4:	48 89 7d f8          	mov    %rdi,-0x8(%rbp)
    return red;
   8:	48 8b 45 f8          	mov    -0x8(%rbp),%rax
   c:	c5 fa 10 00          	vmovss (%rax),%xmm0
  }
  10:	5d                   	pop    %rbp
  11:	c3                   	retq   

Disassembly of section .text._ZNK5Color8getGreenEv:

0000000000000000 <_ZNK5Color8getGreenEv>:
  FLOAT getGreen() const {
   0:	55                   	push   %rbp
   1:	48 89 e5             	mov    %rsp,%rbp
   4:	48 89 7d f8          	mov    %rdi,-0x8(%rbp)
    return green;
   8:	48 8b 45 f8          	mov    -0x8(%rbp),%rax
   c:	c5 fa 10 40 04       	vmovss 0x4(%rax),%xmm0
  }
  11:	5d                   	pop    %rbp
  12:	c3                   	retq   

Disassembly of section .text._ZNK5Color7getBlueEv:

0000000000000000 <_ZNK5Color7getBlueEv>:
  FLOAT getBlue() const {
   0:	55                   	push   %rbp
   1:	48 89 e5             	mov    %rsp,%rbp
   4:	48 89 7d f8          	mov    %rdi,-0x8(%rbp)
    return blue;
   8:	48 8b 45 f8          	mov    -0x8(%rbp),%rax
   c:	c5 fa 10 40 08       	vmovss 0x8(%rax),%xmm0
  }
  11:	5d                   	pop    %rbp
  12:	c3                   	retq   

Disassembly of section .text._ZNK5ColorplES_:

0000000000000000 <_ZNK5ColorplES_>:
  Color operator+(Color addend) const {
   0:	4c 8d 54 24 08       	lea    0x8(%rsp),%r10
   5:	48 83 e4 e0          	and    $0xffffffffffffffe0,%rsp
   9:	41 ff 72 f8          	pushq  -0x8(%r10)
   d:	55                   	push   %rbp
   e:	48 89 e5             	mov    %rsp,%rbp
  11:	41 52                	push   %r10
  13:	48 81 ec 88 00 00 00 	sub    $0x88,%rsp
  1a:	48 89 7d c8          	mov    %rdi,-0x38(%rbp)
  1e:	c4 e1 f9 7e c0       	vmovq  %xmm0,%rax
  23:	c5 f8 28 c1          	vmovaps %xmm1,%xmm0
  27:	48 89 45 b8          	mov    %rax,-0x48(%rbp)
  2b:	c5 fa 11 45 c0       	vmovss %xmm0,-0x40(%rbp)
  30:	64 48 8b 04 25 28 00 	mov    %fs:0x28,%rax
  37:	00 00 
  39:	48 89 45 e8          	mov    %rax,-0x18(%rbp)
  3d:	31 c0                	xor    %eax,%eax
    return Color(red + addend.red, green + addend.green, blue + addend.blue);
  3f:	48 8b 45 c8          	mov    -0x38(%rbp),%rax
  43:	c5 fa 10 48 08       	vmovss 0x8(%rax),%xmm1
  48:	c5 fa 10 45 c0       	vmovss -0x40(%rbp),%xmm0
  4d:	c5 f2 58 d0          	vaddss %xmm0,%xmm1,%xmm2
  51:	48 8b 45 c8          	mov    -0x38(%rbp),%rax
  55:	c5 fa 10 48 04       	vmovss 0x4(%rax),%xmm1
  5a:	c5 fa 10 45 bc       	vmovss -0x44(%rbp),%xmm0
  5f:	c5 f2 58 d8          	vaddss %xmm0,%xmm1,%xmm3
  63:	48 8b 45 c8          	mov    -0x38(%rbp),%rax
  67:	c5 fa 10 08          	vmovss (%rax),%xmm1
  6b:	c5 fa 10 45 b8       	vmovss -0x48(%rbp),%xmm0
  70:	c5 f2 58 c0          	vaddss %xmm0,%xmm1,%xmm0
  74:	48 8d 45 d0          	lea    -0x30(%rbp),%rax
  78:	c5 f8 28 cb          	vmovaps %xmm3,%xmm1
  7c:	48 89 c7             	mov    %rax,%rdi
  7f:	e8 00 00 00 00       	callq  84 <_ZNK5ColorplES_+0x84>
  84:	48 8b 45 d0          	mov    -0x30(%rbp),%rax
  88:	48 89 45 dc          	mov    %rax,-0x24(%rbp)
  8c:	8b 45 d8             	mov    -0x28(%rbp),%eax
  8f:	89 45 e4             	mov    %eax,-0x1c(%rbp)
  92:	48 8b 45 dc          	mov    -0x24(%rbp),%rax
  96:	c5 fa 10 45 e4       	vmovss -0x1c(%rbp),%xmm0
  9b:	c5 f8 28 c8          	vmovaps %xmm0,%xmm1
  }
  9f:	48 89 45 88          	mov    %rax,-0x78(%rbp)
  a3:	c5 fa 7e 45 88       	vmovq  -0x78(%rbp),%xmm0
  a8:	48 8b 45 e8          	mov    -0x18(%rbp),%rax
  ac:	64 48 33 04 25 28 00 	xor    %fs:0x28,%rax
  b3:	00 00 
  b5:	74 05                	je     bc <_ZNK5ColorplES_+0xbc>
  b7:	e8 00 00 00 00       	callq  bc <_ZNK5ColorplES_+0xbc>
  bc:	48 81 c4 88 00 00 00 	add    $0x88,%rsp
  c3:	41 5a                	pop    %r10
  c5:	5d                   	pop    %rbp
  c6:	49 8d 62 f8          	lea    -0x8(%r10),%rsp
  ca:	c3                   	retq   

Disassembly of section .text._ZNK5ColormlES_:

0000000000000000 <_ZNK5ColormlES_>:
  Color operator*(Color factor) const {
   0:	4c 8d 54 24 08       	lea    0x8(%rsp),%r10
   5:	48 83 e4 e0          	and    $0xffffffffffffffe0,%rsp
   9:	41 ff 72 f8          	pushq  -0x8(%r10)
   d:	55                   	push   %rbp
   e:	48 89 e5             	mov    %rsp,%rbp
  11:	41 52                	push   %r10
  13:	48 81 ec 88 00 00 00 	sub    $0x88,%rsp
  1a:	48 89 7d c8          	mov    %rdi,-0x38(%rbp)
  1e:	c4 e1 f9 7e c0       	vmovq  %xmm0,%rax
  23:	c5 f8 28 c1          	vmovaps %xmm1,%xmm0
  27:	48 89 45 b8          	mov    %rax,-0x48(%rbp)
  2b:	c5 fa 11 45 c0       	vmovss %xmm0,-0x40(%rbp)
  30:	64 48 8b 04 25 28 00 	mov    %fs:0x28,%rax
  37:	00 00 
  39:	48 89 45 e8          	mov    %rax,-0x18(%rbp)
  3d:	31 c0                	xor    %eax,%eax
    return Color(red * factor.red, green * factor.green, blue * factor.blue);
  3f:	48 8b 45 c8          	mov    -0x38(%rbp),%rax
  43:	c5 fa 10 48 08       	vmovss 0x8(%rax),%xmm1
  48:	c5 fa 10 45 c0       	vmovss -0x40(%rbp),%xmm0
  4d:	c5 f2 59 d0          	vmulss %xmm0,%xmm1,%xmm2
  51:	48 8b 45 c8          	mov    -0x38(%rbp),%rax
  55:	c5 fa 10 48 04       	vmovss 0x4(%rax),%xmm1
  5a:	c5 fa 10 45 bc       	vmovss -0x44(%rbp),%xmm0
  5f:	c5 f2 59 d8          	vmulss %xmm0,%xmm1,%xmm3
  63:	48 8b 45 c8          	mov    -0x38(%rbp),%rax
  67:	c5 fa 10 08          	vmovss (%rax),%xmm1
  6b:	c5 fa 10 45 b8       	vmovss -0x48(%rbp),%xmm0
  70:	c5 f2 59 c0          	vmulss %xmm0,%xmm1,%xmm0
  74:	48 8d 45 d0          	lea    -0x30(%rbp),%rax
  78:	c5 f8 28 cb          	vmovaps %xmm3,%xmm1
  7c:	48 89 c7             	mov    %rax,%rdi
  7f:	e8 00 00 00 00       	callq  84 <_ZNK5ColormlES_+0x84>
  84:	48 8b 45 d0          	mov    -0x30(%rbp),%rax
  88:	48 89 45 dc          	mov    %rax,-0x24(%rbp)
  8c:	8b 45 d8             	mov    -0x28(%rbp),%eax
  8f:	89 45 e4             	mov    %eax,-0x1c(%rbp)
  92:	48 8b 45 dc          	mov    -0x24(%rbp),%rax
  96:	c5 fa 10 45 e4       	vmovss -0x1c(%rbp),%xmm0
  9b:	c5 f8 28 c8          	vmovaps %xmm0,%xmm1
  }
  9f:	48 89 45 88          	mov    %rax,-0x78(%rbp)
  a3:	c5 fa 7e 45 88       	vmovq  -0x78(%rbp),%xmm0
  a8:	48 8b 45 e8          	mov    -0x18(%rbp),%rax
  ac:	64 48 33 04 25 28 00 	xor    %fs:0x28,%rax
  b3:	00 00 
  b5:	74 05                	je     bc <_ZNK5ColormlES_+0xbc>
  b7:	e8 00 00 00 00       	callq  bc <_ZNK5ColormlES_+0xbc>
  bc:	48 81 c4 88 00 00 00 	add    $0x88,%rsp
  c3:	41 5a                	pop    %r10
  c5:	5d                   	pop    %rbp
  c6:	49 8d 62 f8          	lea    -0x8(%r10),%rsp
  ca:	c3                   	retq   

Disassembly of section .text._Zmlf5Color:

0000000000000000 <_Zmlf5Color>:
  friend Color operator*(const FLOAT factor, Color color)  {
   0:	4c 8d 54 24 08       	lea    0x8(%rsp),%r10
   5:	48 83 e4 e0          	and    $0xffffffffffffffe0,%rsp
   9:	41 ff 72 f8          	pushq  -0x8(%r10)
   d:	55                   	push   %rbp
   e:	48 89 e5             	mov    %rsp,%rbp
  11:	41 52                	push   %r10
  13:	48 81 ec 88 00 00 00 	sub    $0x88,%rsp
  1a:	c5 fa 11 45 cc       	vmovss %xmm0,-0x34(%rbp)
  1f:	c4 e1 f9 7e c8       	vmovq  %xmm1,%rax
  24:	c5 f8 28 c2          	vmovaps %xmm2,%xmm0
  28:	48 89 45 b8          	mov    %rax,-0x48(%rbp)
  2c:	c5 fa 11 45 c0       	vmovss %xmm0,-0x40(%rbp)
  31:	64 48 8b 04 25 28 00 	mov    %fs:0x28,%rax
  38:	00 00 
  3a:	48 89 45 e8          	mov    %rax,-0x18(%rbp)
  3e:	31 c0                	xor    %eax,%eax
    return Color(factor * color.red, factor * color.green, factor * color.blue);
  40:	c5 fa 10 45 c0       	vmovss -0x40(%rbp),%xmm0
  45:	c5 fa 59 55 cc       	vmulss -0x34(%rbp),%xmm0,%xmm2
  4a:	c5 fa 10 45 bc       	vmovss -0x44(%rbp),%xmm0
  4f:	c5 fa 59 4d cc       	vmulss -0x34(%rbp),%xmm0,%xmm1
  54:	c5 fa 10 45 b8       	vmovss -0x48(%rbp),%xmm0
  59:	c5 fa 59 45 cc       	vmulss -0x34(%rbp),%xmm0,%xmm0
  5e:	48 8d 45 d0          	lea    -0x30(%rbp),%rax
  62:	48 89 c7             	mov    %rax,%rdi
  65:	e8 00 00 00 00       	callq  6a <_Zmlf5Color+0x6a>
  6a:	48 8b 45 d0          	mov    -0x30(%rbp),%rax
  6e:	48 89 45 dc          	mov    %rax,-0x24(%rbp)
  72:	8b 45 d8             	mov    -0x28(%rbp),%eax
  75:	89 45 e4             	mov    %eax,-0x1c(%rbp)
  78:	48 8b 45 dc          	mov    -0x24(%rbp),%rax
  7c:	c5 fa 10 45 e4       	vmovss -0x1c(%rbp),%xmm0
  81:	c5 f8 28 c8          	vmovaps %xmm0,%xmm1
  }
  85:	48 89 45 88          	mov    %rax,-0x78(%rbp)
  89:	c5 fa 7e 45 88       	vmovq  -0x78(%rbp),%xmm0
  8e:	48 8b 45 e8          	mov    -0x18(%rbp),%rax
  92:	64 48 33 04 25 28 00 	xor    %fs:0x28,%rax
  99:	00 00 
  9b:	74 05                	je     a2 <_Zmlf5Color+0xa2>
  9d:	e8 00 00 00 00       	callq  a2 <_Zmlf5Color+0xa2>
  a2:	48 81 c4 88 00 00 00 	add    $0x88,%rsp
  a9:	41 5a                	pop    %r10
  ab:	5d                   	pop    %rbp
  ac:	49 8d 62 f8          	lea    -0x8(%r10),%rsp
  b0:	c3                   	retq   

Disassembly of section .text._ZN8MaterialC2E5Colorffff:

0000000000000000 <_ZN8MaterialC1E5Colorffff>:
  Material(Color color = Color(1.0, 0.7, 0.8),
   0:	55                   	push   %rbp
   1:	48 89 e5             	mov    %rsp,%rbp
   4:	48 89 7d f8          	mov    %rdi,-0x8(%rbp)
   8:	c4 e1 f9 7e c0       	vmovq  %xmm0,%rax
   d:	c5 f8 28 c1          	vmovaps %xmm1,%xmm0
  11:	c5 fa 11 55 e4       	vmovss %xmm2,-0x1c(%rbp)
  16:	c5 fa 11 5d e0       	vmovss %xmm3,-0x20(%rbp)
  1b:	c5 fa 11 65 dc       	vmovss %xmm4,-0x24(%rbp)
  20:	c5 fa 11 6d d8       	vmovss %xmm5,-0x28(%rbp)
  25:	48 89 45 e8          	mov    %rax,-0x18(%rbp)
  29:	c5 fa 11 45 f0       	vmovss %xmm0,-0x10(%rbp)
    : color(color), ambient(ambient), diffuse(diffuse), reflection(reflection), transmission(transmission) {
  2e:	48 8b 45 f8          	mov    -0x8(%rbp),%rax
  32:	48 8b 55 e8          	mov    -0x18(%rbp),%rdx
  36:	48 89 10             	mov    %rdx,(%rax)
  39:	8b 55 f0             	mov    -0x10(%rbp),%edx
  3c:	89 50 08             	mov    %edx,0x8(%rax)
  3f:	48 8b 45 f8          	mov    -0x8(%rbp),%rax
  43:	c5 fa 10 45 e4       	vmovss -0x1c(%rbp),%xmm0
  48:	c5 fa 11 40 0c       	vmovss %xmm0,0xc(%rax)
  4d:	48 8b 45 f8          	mov    -0x8(%rbp),%rax
  51:	c5 fa 10 45 e0       	vmovss -0x20(%rbp),%xmm0
  56:	c5 fa 11 40 10       	vmovss %xmm0,0x10(%rax)
  5b:	48 8b 45 f8          	mov    -0x8(%rbp),%rax
  5f:	c5 fa 10 45 dc       	vmovss -0x24(%rbp),%xmm0
  64:	c5 fa 11 40 14       	vmovss %xmm0,0x14(%rax)
  69:	48 8b 45 f8          	mov    -0x8(%rbp),%rax
  6d:	c5 fa 10 45 d8       	vmovss -0x28(%rbp),%xmm0
  72:	c5 fa 11 40 18       	vmovss %xmm0,0x18(%rax)
  }
  77:	90                   	nop
  78:	5d                   	pop    %rbp
  79:	c3                   	retq   

Disassembly of section .text._ZNK8Material8getColorEv:

0000000000000000 <_ZNK8Material8getColorEv>:
  Color getColor() const {
   0:	4c 8d 54 24 08       	lea    0x8(%rsp),%r10
   5:	48 83 e4 e0          	and    $0xffffffffffffffe0,%rsp
   9:	41 ff 72 f8          	pushq  -0x8(%r10)
   d:	55                   	push   %rbp
   e:	48 89 e5             	mov    %rsp,%rbp
  11:	41 52                	push   %r10
  13:	48 89 7d d8          	mov    %rdi,-0x28(%rbp)
    return color;
  17:	48 8b 45 d8          	mov    -0x28(%rbp),%rax
  1b:	48 8b 10             	mov    (%rax),%rdx
  1e:	48 89 55 e4          	mov    %rdx,-0x1c(%rbp)
  22:	8b 40 08             	mov    0x8(%rax),%eax
  25:	89 45 ec             	mov    %eax,-0x14(%rbp)
  28:	48 8b 45 e4          	mov    -0x1c(%rbp),%rax
  2c:	c5 fa 10 45 ec       	vmovss -0x14(%rbp),%xmm0
  31:	c5 f8 28 c8          	vmovaps %xmm0,%xmm1
  }
  35:	48 89 45 a8          	mov    %rax,-0x58(%rbp)
  39:	c5 fa 7e 45 a8       	vmovq  -0x58(%rbp),%xmm0
  3e:	41 5a                	pop    %r10
  40:	5d                   	pop    %rbp
  41:	49 8d 62 f8          	lea    -0x8(%r10),%rsp
  45:	c3                   	retq   

Disassembly of section .text._ZNK8Material10getAmbientEv:

0000000000000000 <_ZNK8Material10getAmbientEv>:
  FLOAT getAmbient() const {
   0:	55                   	push   %rbp
   1:	48 89 e5             	mov    %rsp,%rbp
   4:	48 89 7d f8          	mov    %rdi,-0x8(%rbp)
    return ambient;
   8:	48 8b 45 f8          	mov    -0x8(%rbp),%rax
   c:	c5 fa 10 40 0c       	vmovss 0xc(%rax),%xmm0
  }
  11:	5d                   	pop    %rbp
  12:	c3                   	retq   

Disassembly of section .text._ZNK8Material10getDiffuseEv:

0000000000000000 <_ZNK8Material10getDiffuseEv>:
  FLOAT getDiffuse() const {
   0:	55                   	push   %rbp
   1:	48 89 e5             	mov    %rsp,%rbp
   4:	48 89 7d f8          	mov    %rdi,-0x8(%rbp)
    return diffuse;
   8:	48 8b 45 f8          	mov    -0x8(%rbp),%rax
   c:	c5 fa 10 40 10       	vmovss 0x10(%rax),%xmm0
  }
  11:	5d                   	pop    %rbp
  12:	c3                   	retq   

Disassembly of section .text._ZN6ScreenC2Emm:

0000000000000000 <_ZN6ScreenC1Emm>:
  Screen(size_t width, size_t  height)
   0:	55                   	push   %rbp
   1:	48 89 e5             	mov    %rsp,%rbp
   4:	41 56                	push   %r14
   6:	41 55                	push   %r13
   8:	41 54                	push   %r12
   a:	53                   	push   %rbx
   b:	48 83 ec 20          	sub    $0x20,%rsp
   f:	48 89 7d d8          	mov    %rdi,-0x28(%rbp)
  13:	48 89 75 d0          	mov    %rsi,-0x30(%rbp)
  17:	48 89 55 c8          	mov    %rdx,-0x38(%rbp)
      : width(width), height(height), buffer(std::unique_ptr<Color []>( new Color[width * height] ))
  1b:	48 8b 45 d8          	mov    -0x28(%rbp),%rax
  1f:	48 8b 55 d0          	mov    -0x30(%rbp),%rdx
  23:	48 89 10             	mov    %rdx,(%rax)
  26:	48 8b 45 d8          	mov    -0x28(%rbp),%rax
  2a:	48 8b 55 c8          	mov    -0x38(%rbp),%rdx
  2e:	48 89 50 08          	mov    %rdx,0x8(%rax)
  32:	48 8b 45 d8          	mov    -0x28(%rbp),%rax
  36:	4c 8d 70 10          	lea    0x10(%rax),%r14
  3a:	48 8b 45 d0          	mov    -0x30(%rbp),%rax
  3e:	48 0f af 45 c8       	imul   -0x38(%rbp),%rax
  43:	48 89 c3             	mov    %rax,%rbx
  46:	48 b8 aa aa aa aa aa 	movabs $0xaaaaaaaaaaaaaaa,%rax
  4d:	aa aa 0a 
  50:	48 39 c3             	cmp    %rax,%rbx
  53:	77 27                	ja     7c <_ZN6ScreenC1Emm+0x7c>
  55:	48 89 d8             	mov    %rbx,%rax
  58:	48 01 c0             	add    %rax,%rax
  5b:	48 01 d8             	add    %rbx,%rax
  5e:	48 c1 e0 02          	shl    $0x2,%rax
  62:	48 89 c7             	mov    %rax,%rdi
  65:	e8 00 00 00 00       	callq  6a <_ZN6ScreenC1Emm+0x6a>
  6a:	49 89 c5             	mov    %rax,%r13
  6d:	4c 89 ea             	mov    %r13,%rdx
  70:	48 8d 43 ff          	lea    -0x1(%rbx),%rax
  74:	48 89 c3             	mov    %rax,%rbx
  77:	49 89 d4             	mov    %rdx,%r12
  7a:	eb 05                	jmp    81 <_ZN6ScreenC1Emm+0x81>
  7c:	e8 00 00 00 00       	callq  81 <_ZN6ScreenC1Emm+0x81>
  81:	48 85 db             	test   %rbx,%rbx
  84:	78 1e                	js     a4 <_ZN6ScreenC1Emm+0xa4>
  86:	c5 e8 57 d2          	vxorps %xmm2,%xmm2,%xmm2
  8a:	c5 f0 57 c9          	vxorps %xmm1,%xmm1,%xmm1
  8e:	c5 f8 57 c0          	vxorps %xmm0,%xmm0,%xmm0
  92:	4c 89 e7             	mov    %r12,%rdi
  95:	e8 00 00 00 00       	callq  9a <_ZN6ScreenC1Emm+0x9a>
  9a:	49 83 c4 0c          	add    $0xc,%r12
  9e:	48 83 eb 01          	sub    $0x1,%rbx
  a2:	eb dd                	jmp    81 <_ZN6ScreenC1Emm+0x81>
  a4:	4c 89 ee             	mov    %r13,%rsi
  a7:	4c 89 f7             	mov    %r14,%rdi
  aa:	e8 00 00 00 00       	callq  af <_ZN6ScreenC1Emm+0xaf>
  }
  af:	90                   	nop
  b0:	48 83 c4 20          	add    $0x20,%rsp
  b4:	5b                   	pop    %rbx
  b5:	41 5c                	pop    %r12
  b7:	41 5d                	pop    %r13
  b9:	41 5e                	pop    %r14
  bb:	5d                   	pop    %rbp
  bc:	c3                   	retq   

Disassembly of section .text._ZN6Screen8setPixelEmm5Color:

0000000000000000 <_ZN6Screen8setPixelEmm5Color>:
  void setPixel(size_t x, size_t y, Color color) {
   0:	55                   	push   %rbp
   1:	48 89 e5             	mov    %rsp,%rbp
   4:	48 83 ec 30          	sub    $0x30,%rsp
   8:	48 89 7d f8          	mov    %rdi,-0x8(%rbp)
   c:	48 89 75 f0          	mov    %rsi,-0x10(%rbp)
  10:	48 89 55 e8          	mov    %rdx,-0x18(%rbp)
  14:	c4 e1 f9 7e c0       	vmovq  %xmm0,%rax
  19:	c5 f8 28 c1          	vmovaps %xmm1,%xmm0
  1d:	48 89 45 d8          	mov    %rax,-0x28(%rbp)
  21:	c5 fa 11 45 e0       	vmovss %xmm0,-0x20(%rbp)
    buffer[x + y * width] = color;
  26:	48 8b 45 f8          	mov    -0x8(%rbp),%rax
  2a:	48 8b 00             	mov    (%rax),%rax
  2d:	48 0f af 45 e8       	imul   -0x18(%rbp),%rax
  32:	48 89 c2             	mov    %rax,%rdx
  35:	48 8b 45 f0          	mov    -0x10(%rbp),%rax
  39:	48 01 c2             	add    %rax,%rdx
  3c:	48 8b 45 f8          	mov    -0x8(%rbp),%rax
  40:	48 83 c0 10          	add    $0x10,%rax
  44:	48 89 d6             	mov    %rdx,%rsi
  47:	48 89 c7             	mov    %rax,%rdi
  4a:	e8 00 00 00 00       	callq  4f <_ZN6Screen8setPixelEmm5Color+0x4f>
  4f:	48 8b 55 d8          	mov    -0x28(%rbp),%rdx
  53:	48 89 10             	mov    %rdx,(%rax)
  56:	8b 55 e0             	mov    -0x20(%rbp),%edx
  59:	89 50 08             	mov    %edx,0x8(%rax)
  }
  5c:	90                   	nop
  5d:	c9                   	leaveq 
  5e:	c3                   	retq   

Disassembly of section .text._ZN6Screen5clearE5Color:

0000000000000000 <_ZN6Screen5clearE5Color>:
  void clear(Color color = Color(0.0, 0.0, 0.0) ) {
   0:	55                   	push   %rbp
   1:	48 89 e5             	mov    %rsp,%rbp
   4:	48 83 ec 30          	sub    $0x30,%rsp
   8:	48 89 7d e8          	mov    %rdi,-0x18(%rbp)
   c:	c4 e1 f9 7e c0       	vmovq  %xmm0,%rax
  11:	c5 f8 28 c1          	vmovaps %xmm1,%xmm0
  15:	48 89 45 d8          	mov    %rax,-0x28(%rbp)
  19:	c5 fa 11 45 e0       	vmovss %xmm0,-0x20(%rbp)
    for (size_t x = 0u; x < getWidth(); x++) {
  1e:	48 c7 45 f0 00 00 00 	movq   $0x0,-0x10(%rbp)
  25:	00 
  26:	48 8b 45 e8          	mov    -0x18(%rbp),%rax
  2a:	48 89 c7             	mov    %rax,%rdi
  2d:	e8 00 00 00 00       	callq  32 <_ZN6Screen5clearE5Color+0x32>
  32:	48 39 45 f0          	cmp    %rax,-0x10(%rbp)
  36:	0f 92 c0             	setb   %al
  39:	84 c0                	test   %al,%al
  3b:	74 56                	je     93 <_ZN6Screen5clearE5Color+0x93>
      for (size_t y = 0u; y < getHeight(); y++) {
  3d:	48 c7 45 f8 00 00 00 	movq   $0x0,-0x8(%rbp)
  44:	00 
  45:	48 8b 45 e8          	mov    -0x18(%rbp),%rax
  49:	48 89 c7             	mov    %rax,%rdi
  4c:	e8 00 00 00 00       	callq  51 <_ZN6Screen5clearE5Color+0x51>
  51:	48 39 45 f8          	cmp    %rax,-0x8(%rbp)
  55:	0f 92 c0             	setb   %al
  58:	84 c0                	test   %al,%al
  5a:	74 30                	je     8c <_ZN6Screen5clearE5Color+0x8c>
         setPixel(x, y, color );
  5c:	48 8b 75 d8          	mov    -0x28(%rbp),%rsi
  60:	c5 fa 10 4d e0       	vmovss -0x20(%rbp),%xmm1
  65:	48 8b 55 f8          	mov    -0x8(%rbp),%rdx
  69:	48 8b 4d f0          	mov    -0x10(%rbp),%rcx
  6d:	48 8b 45 e8          	mov    -0x18(%rbp),%rax
  71:	48 89 75 d0          	mov    %rsi,-0x30(%rbp)
  75:	c5 fa 7e 45 d0       	vmovq  -0x30(%rbp),%xmm0
  7a:	48 89 ce             	mov    %rcx,%rsi
  7d:	48 89 c7             	mov    %rax,%rdi
  80:	e8 00 00 00 00       	callq  85 <_ZN6Screen5clearE5Color+0x85>
      for (size_t y = 0u; y < getHeight(); y++) {
  85:	48 83 45 f8 01       	addq   $0x1,-0x8(%rbp)
  8a:	eb b9                	jmp    45 <_ZN6Screen5clearE5Color+0x45>
    for (size_t x = 0u; x < getWidth(); x++) {
  8c:	48 83 45 f0 01       	addq   $0x1,-0x10(%rbp)
  91:	eb 93                	jmp    26 <_ZN6Screen5clearE5Color+0x26>
  }
  93:	90                   	nop
  94:	c9                   	leaveq 
  95:	c3                   	retq   

Disassembly of section .text._ZNK6Screen8getWidthEv:

0000000000000000 <_ZNK6Screen8getWidthEv>:
  size_t getWidth() const {
   0:	55                   	push   %rbp
   1:	48 89 e5             	mov    %rsp,%rbp
   4:	48 89 7d f8          	mov    %rdi,-0x8(%rbp)
    return this->width;
   8:	48 8b 45 f8          	mov    -0x8(%rbp),%rax
   c:	48 8b 00             	mov    (%rax),%rax
  }
   f:	5d                   	pop    %rbp
  10:	c3                   	retq   

Disassembly of section .text._ZNK6Screen9getHeightEv:

0000000000000000 <_ZNK6Screen9getHeightEv>:
  size_t getHeight() const {
   0:	55                   	push   %rbp
   1:	48 89 e5             	mov    %rsp,%rbp
   4:	48 89 7d f8          	mov    %rdi,-0x8(%rbp)
    return this->height;
   8:	48 8b 45 f8          	mov    -0x8(%rbp),%rax
   c:	48 8b 40 08          	mov    0x8(%rax),%rax
  }
  10:	5d                   	pop    %rbp
  11:	c3                   	retq   

Disassembly of section .text._ZNK6Screen8getPixelEmm:

0000000000000000 <_ZNK6Screen8getPixelEmm>:
  Color getPixel(size_t x, size_t y) const {
   0:	4c 8d 54 24 08       	lea    0x8(%rsp),%r10
   5:	48 83 e4 e0          	and    $0xffffffffffffffe0,%rsp
   9:	41 ff 72 f8          	pushq  -0x8(%r10)
   d:	55                   	push   %rbp
   e:	48 89 e5             	mov    %rsp,%rbp
  11:	41 52                	push   %r10
  13:	48 81 ec 88 00 00 00 	sub    $0x88,%rsp
  1a:	48 89 7d d8          	mov    %rdi,-0x28(%rbp)
  1e:	48 89 75 d0          	mov    %rsi,-0x30(%rbp)
  22:	48 89 55 c8          	mov    %rdx,-0x38(%rbp)
    return buffer[x + y * width];
  26:	48 8b 45 d8          	mov    -0x28(%rbp),%rax
  2a:	48 8b 00             	mov    (%rax),%rax
  2d:	48 0f af 45 c8       	imul   -0x38(%rbp),%rax
  32:	48 89 c2             	mov    %rax,%rdx
  35:	48 8b 45 d0          	mov    -0x30(%rbp),%rax
  39:	48 01 c2             	add    %rax,%rdx
  3c:	48 8b 45 d8          	mov    -0x28(%rbp),%rax
  40:	48 83 c0 10          	add    $0x10,%rax
  44:	48 89 d6             	mov    %rdx,%rsi
  47:	48 89 c7             	mov    %rax,%rdi
  4a:	e8 00 00 00 00       	callq  4f <_ZNK6Screen8getPixelEmm+0x4f>
  4f:	48 8b 10             	mov    (%rax),%rdx
  52:	48 89 55 e4          	mov    %rdx,-0x1c(%rbp)
  56:	8b 40 08             	mov    0x8(%rax),%eax
  59:	89 45 ec             	mov    %eax,-0x14(%rbp)
  5c:	48 8b 45 e4          	mov    -0x1c(%rbp),%rax
  60:	c5 fa 10 45 ec       	vmovss -0x14(%rbp),%xmm0
  65:	c5 f8 28 c8          	vmovaps %xmm0,%xmm1
  }
  69:	48 89 45 88          	mov    %rax,-0x78(%rbp)
  6d:	c5 fa 7e 45 88       	vmovq  -0x78(%rbp),%xmm0
  72:	48 81 c4 88 00 00 00 	add    $0x88,%rsp
  79:	41 5a                	pop    %r10
  7b:	5d                   	pop    %rbp
  7c:	49 8d 62 f8          	lea    -0x8(%r10),%rsp
  80:	c3                   	retq   

Disassembly of section .text._ZN6CameraC2E6VectorIfLm3EES1_S1_S1_ff:

0000000000000000 <_ZN6CameraC1E6VectorIfLm3EES1_S1_S1_ff>:
  Camera(Vector<FLOAT, 3> eye, Vector<FLOAT, 3> center, Vector<FLOAT, 3>up, Vector<FLOAT, 3> right, FLOAT pixelWidth = 1.0, FLOAT pixelHeight = 1.0 )
   0:	55                   	push   %rbp
   1:	48 89 e5             	mov    %rsp,%rbp
   4:	53                   	push   %rbx
   5:	48 83 ec 78          	sub    $0x78,%rsp
   9:	48 89 7d c8          	mov    %rdi,-0x38(%rbp)
   d:	c4 e1 f9 7e c0       	vmovq  %xmm0,%rax
  12:	c4 c1 f9 7e ca       	vmovq  %xmm1,%r10
  17:	c4 e1 f9 7e d6       	vmovq  %xmm2,%rsi
  1c:	c4 c1 f9 7e d9       	vmovq  %xmm3,%r9
  21:	c4 e1 f9 7e e1       	vmovq  %xmm4,%rcx
  26:	c4 c1 f9 7e e8       	vmovq  %xmm5,%r8
  2b:	c4 e1 f9 7e f2       	vmovq  %xmm6,%rdx
  30:	c4 e1 f9 7e ff       	vmovq  %xmm7,%rdi
  35:	48 89 45 b8          	mov    %rax,-0x48(%rbp)
  39:	8b 45 c0             	mov    -0x40(%rbp),%eax
  3c:	83 e0 00             	and    $0x0,%eax
  3f:	44 09 d0             	or     %r10d,%eax
  42:	89 45 c0             	mov    %eax,-0x40(%rbp)
  45:	48 89 75 a8          	mov    %rsi,-0x58(%rbp)
  49:	8b 45 b0             	mov    -0x50(%rbp),%eax
  4c:	83 e0 00             	and    $0x0,%eax
  4f:	44 09 c8             	or     %r9d,%eax
  52:	89 45 b0             	mov    %eax,-0x50(%rbp)
  55:	48 89 4d 98          	mov    %rcx,-0x68(%rbp)
  59:	8b 45 a0             	mov    -0x60(%rbp),%eax
  5c:	83 e0 00             	and    $0x0,%eax
  5f:	44 09 c0             	or     %r8d,%eax
  62:	89 45 a0             	mov    %eax,-0x60(%rbp)
  65:	48 89 55 88          	mov    %rdx,-0x78(%rbp)
  69:	8b 45 90             	mov    -0x70(%rbp),%eax
  6c:	83 e0 00             	and    $0x0,%eax
  6f:	09 f8                	or     %edi,%eax
  71:	89 45 90             	mov    %eax,-0x70(%rbp)
  74:	64 48 8b 04 25 28 00 	mov    %fs:0x28,%rax
  7b:	00 00 
  7d:	48 89 45 e8          	mov    %rax,-0x18(%rbp)
  81:	31 c0                	xor    %eax,%eax
    : eye(eye), upper_left(center - right + up), down(-2.0 * up), right(2.0 * right), pixelWidth(pixelWidth), pixelHeight(pixelHeight) {
  83:	48 8b 45 c8          	mov    -0x38(%rbp),%rax
  87:	48 8b 55 b8          	mov    -0x48(%rbp),%rdx
  8b:	48 89 10             	mov    %rdx,(%rax)
  8e:	8b 55 c0             	mov    -0x40(%rbp),%edx
  91:	89 50 08             	mov    %edx,0x8(%rax)
  94:	48 8b 4d 88          	mov    -0x78(%rbp),%rcx
  98:	8b 55 90             	mov    -0x70(%rbp),%edx
  9b:	48 8d 45 a8          	lea    -0x58(%rbp),%rax
  9f:	48 89 4d 80          	mov    %rcx,-0x80(%rbp)
  a3:	c5 fa 7e 45 80       	vmovq  -0x80(%rbp),%xmm0
  a8:	48 89 55 80          	mov    %rdx,-0x80(%rbp)
  ac:	c5 fa 7e 4d 80       	vmovq  -0x80(%rbp),%xmm1
  b1:	48 89 c7             	mov    %rax,%rdi
  b4:	e8 00 00 00 00       	callq  b9 <_ZN6CameraC1E6VectorIfLm3EES1_S1_S1_ff+0xb9>
  b9:	c4 e1 f9 7e c0       	vmovq  %xmm0,%rax
  be:	c4 e1 f9 7e ca       	vmovq  %xmm1,%rdx
  c3:	48 89 45 dc          	mov    %rax,-0x24(%rbp)
  c7:	8b 45 e4             	mov    -0x1c(%rbp),%eax
  ca:	83 e0 00             	and    $0x0,%eax
  cd:	09 d0                	or     %edx,%eax
  cf:	89 45 e4             	mov    %eax,-0x1c(%rbp)
  d2:	48 8b 5d c8          	mov    -0x38(%rbp),%rbx
  d6:	48 8b 4d 98          	mov    -0x68(%rbp),%rcx
  da:	8b 55 a0             	mov    -0x60(%rbp),%edx
  dd:	48 8d 45 dc          	lea    -0x24(%rbp),%rax
  e1:	48 89 4d 80          	mov    %rcx,-0x80(%rbp)
  e5:	c5 fa 7e 45 80       	vmovq  -0x80(%rbp),%xmm0
  ea:	48 89 55 80          	mov    %rdx,-0x80(%rbp)
  ee:	c5 fa 7e 4d 80       	vmovq  -0x80(%rbp),%xmm1
  f3:	48 89 c7             	mov    %rax,%rdi
  f6:	e8 00 00 00 00       	callq  fb <_ZN6CameraC1E6VectorIfLm3EES1_S1_S1_ff+0xfb>
  fb:	c4 e1 f9 7e c0       	vmovq  %xmm0,%rax
 100:	c4 e1 f9 7e ca       	vmovq  %xmm1,%rdx
 105:	48 89 43 0c          	mov    %rax,0xc(%rbx)
 109:	8b 43 14             	mov    0x14(%rbx),%eax
 10c:	83 e0 00             	and    $0x0,%eax
 10f:	09 d0                	or     %edx,%eax
 111:	89 43 14             	mov    %eax,0x14(%rbx)
 114:	48 8b 5d c8          	mov    -0x38(%rbp),%rbx
 118:	48 8b 55 98          	mov    -0x68(%rbp),%rdx
 11c:	8b 45 a0             	mov    -0x60(%rbp),%eax
 11f:	48 89 55 80          	mov    %rdx,-0x80(%rbp)
 123:	c5 fa 7e 4d 80       	vmovq  -0x80(%rbp),%xmm1
 128:	48 89 45 80          	mov    %rax,-0x80(%rbp)
 12c:	c5 fa 7e 55 80       	vmovq  -0x80(%rbp),%xmm2
 131:	c5 fa 10 05 00 00 00 	vmovss 0x0(%rip),%xmm0        # 139 <_ZN6CameraC1E6VectorIfLm3EES1_S1_S1_ff+0x139>
 138:	00 
 139:	e8 00 00 00 00       	callq  13e <_ZN6CameraC1E6VectorIfLm3EES1_S1_S1_ff+0x13e>
 13e:	c4 e1 f9 7e c0       	vmovq  %xmm0,%rax
 143:	c4 e1 f9 7e ca       	vmovq  %xmm1,%rdx
 148:	48 89 43 18          	mov    %rax,0x18(%rbx)
 14c:	8b 43 20             	mov    0x20(%rbx),%eax
 14f:	83 e0 00             	and    $0x0,%eax
 152:	09 d0                	or     %edx,%eax
 154:	89 43 20             	mov    %eax,0x20(%rbx)
 157:	48 8b 5d c8          	mov    -0x38(%rbp),%rbx
 15b:	48 8b 55 88          	mov    -0x78(%rbp),%rdx
 15f:	8b 45 90             	mov    -0x70(%rbp),%eax
 162:	48 89 55 80          	mov    %rdx,-0x80(%rbp)
 166:	c5 fa 7e 4d 80       	vmovq  -0x80(%rbp),%xmm1
 16b:	48 89 45 80          	mov    %rax,-0x80(%rbp)
 16f:	c5 fa 7e 55 80       	vmovq  -0x80(%rbp),%xmm2
 174:	c5 fa 10 05 00 00 00 	vmovss 0x0(%rip),%xmm0        # 17c <_ZN6CameraC1E6VectorIfLm3EES1_S1_S1_ff+0x17c>
 17b:	00 
 17c:	e8 00 00 00 00       	callq  181 <_ZN6CameraC1E6VectorIfLm3EES1_S1_S1_ff+0x181>
 181:	c4 e1 f9 7e c0       	vmovq  %xmm0,%rax
 186:	c4 e1 f9 7e ca       	vmovq  %xmm1,%rdx
 18b:	48 89 43 24          	mov    %rax,0x24(%rbx)
 18f:	8b 43 2c             	mov    0x2c(%rbx),%eax
 192:	83 e0 00             	and    $0x0,%eax
 195:	09 d0                	or     %edx,%eax
 197:	89 43 2c             	mov    %eax,0x2c(%rbx)
 19a:	48 8b 45 c8          	mov    -0x38(%rbp),%rax
 19e:	c5 fa 10 45 10       	vmovss 0x10(%rbp),%xmm0
 1a3:	c5 fa 11 40 30       	vmovss %xmm0,0x30(%rax)
 1a8:	48 8b 45 c8          	mov    -0x38(%rbp),%rax
 1ac:	c5 fa 10 45 18       	vmovss 0x18(%rbp),%xmm0
 1b1:	c5 fa 11 40 34       	vmovss %xmm0,0x34(%rax)
     this->right.normalize();
 1b6:	48 8b 45 c8          	mov    -0x38(%rbp),%rax
 1ba:	48 83 c0 24          	add    $0x24,%rax
 1be:	48 89 c7             	mov    %rax,%rdi
 1c1:	e8 00 00 00 00       	callq  1c6 <_ZN6CameraC1E6VectorIfLm3EES1_S1_S1_ff+0x1c6>
     this->down.normalize();
 1c6:	48 8b 45 c8          	mov    -0x38(%rbp),%rax
 1ca:	48 83 c0 18          	add    $0x18,%rax
 1ce:	48 89 c7             	mov    %rax,%rdi
 1d1:	e8 00 00 00 00       	callq  1d6 <_ZN6CameraC1E6VectorIfLm3EES1_S1_S1_ff+0x1d6>
  }
 1d6:	90                   	nop
 1d7:	48 8b 45 e8          	mov    -0x18(%rbp),%rax
 1db:	64 48 33 04 25 28 00 	xor    %fs:0x28,%rax
 1e2:	00 00 
 1e4:	74 05                	je     1eb <_ZN6CameraC1E6VectorIfLm3EES1_S1_S1_ff+0x1eb>
 1e6:	e8 00 00 00 00       	callq  1eb <_ZN6CameraC1E6VectorIfLm3EES1_S1_S1_ff+0x1eb>
 1eb:	48 83 c4 78          	add    $0x78,%rsp
 1ef:	5b                   	pop    %rbx
 1f0:	5d                   	pop    %rbp
 1f1:	c3                   	retq   

Disassembly of section .text._ZN6CameraC2E6VectorIfLm3EES1_S1_S1_R6Screen:

0000000000000000 <_ZN6CameraC1E6VectorIfLm3EES1_S1_S1_R6Screen>:
  Camera(Vector<FLOAT, 3> eye, Vector<FLOAT, 3> center, Vector<FLOAT, 3> up, Vector<FLOAT, 3> right, Screen & screen )
   0:	55                   	push   %rbp
   1:	48 89 e5             	mov    %rsp,%rbp
   4:	48 83 ec 60          	sub    $0x60,%rsp
   8:	48 89 7d f8          	mov    %rdi,-0x8(%rbp)
   c:	c4 e1 f9 7e c0       	vmovq  %xmm0,%rax
  11:	c4 c1 f9 7e cb       	vmovq  %xmm1,%r11
  16:	c4 e1 f9 7e d7       	vmovq  %xmm2,%rdi
  1b:	c4 c1 f9 7e da       	vmovq  %xmm3,%r10
  20:	c4 e1 f9 7e e1       	vmovq  %xmm4,%rcx
  25:	c4 c1 f9 7e e9       	vmovq  %xmm5,%r9
  2a:	c4 e1 f9 7e f2       	vmovq  %xmm6,%rdx
  2f:	c4 c1 f9 7e f8       	vmovq  %xmm7,%r8
  34:	48 89 75 b0          	mov    %rsi,-0x50(%rbp)
  38:	48 89 45 e8          	mov    %rax,-0x18(%rbp)
  3c:	8b 45 f0             	mov    -0x10(%rbp),%eax
  3f:	83 e0 00             	and    $0x0,%eax
  42:	44 09 d8             	or     %r11d,%eax
  45:	89 45 f0             	mov    %eax,-0x10(%rbp)
  48:	48 89 7d d8          	mov    %rdi,-0x28(%rbp)
  4c:	8b 45 e0             	mov    -0x20(%rbp),%eax
  4f:	83 e0 00             	and    $0x0,%eax
  52:	44 09 d0             	or     %r10d,%eax
  55:	89 45 e0             	mov    %eax,-0x20(%rbp)
  58:	48 89 4d c8          	mov    %rcx,-0x38(%rbp)
  5c:	8b 45 d0             	mov    -0x30(%rbp),%eax
  5f:	83 e0 00             	and    $0x0,%eax
  62:	44 09 c8             	or     %r9d,%eax
  65:	89 45 d0             	mov    %eax,-0x30(%rbp)
  68:	48 89 55 b8          	mov    %rdx,-0x48(%rbp)
  6c:	8b 45 c0             	mov    -0x40(%rbp),%eax
  6f:	83 e0 00             	and    $0x0,%eax
  72:	44 09 c0             	or     %r8d,%eax
  75:	89 45 c0             	mov    %eax,-0x40(%rbp)
             2.0 * ( up.length() / screen.getHeight() ) ) {
  78:	48 8d 45 c8          	lea    -0x38(%rbp),%rax
  7c:	48 89 c7             	mov    %rax,%rdi
  7f:	e8 00 00 00 00       	callq  84 <_ZN6CameraC1E6VectorIfLm3EES1_S1_S1_R6Screen+0x84>
  84:	c5 fa 11 45 a8       	vmovss %xmm0,-0x58(%rbp)
  89:	48 8b 45 b0          	mov    -0x50(%rbp),%rax
  8d:	48 89 c7             	mov    %rax,%rdi
  90:	e8 00 00 00 00       	callq  95 <_ZN6CameraC1E6VectorIfLm3EES1_S1_S1_R6Screen+0x95>
  95:	48 85 c0             	test   %rax,%rax
  98:	78 07                	js     a1 <_ZN6CameraC1E6VectorIfLm3EES1_S1_S1_R6Screen+0xa1>
  9a:	c4 e1 fa 2a c0       	vcvtsi2ss %rax,%xmm0,%xmm0
  9f:	eb 15                	jmp    b6 <_ZN6CameraC1E6VectorIfLm3EES1_S1_S1_R6Screen+0xb6>
  a1:	48 89 c2             	mov    %rax,%rdx
  a4:	48 d1 ea             	shr    %rdx
  a7:	83 e0 01             	and    $0x1,%eax
  aa:	48 09 c2             	or     %rax,%rdx
  ad:	c4 e1 fa 2a c2       	vcvtsi2ss %rdx,%xmm0,%xmm0
  b2:	c5 fa 58 c0          	vaddss %xmm0,%xmm0,%xmm0
  b6:	c5 fa 10 4d a8       	vmovss -0x58(%rbp),%xmm1
  bb:	c5 f2 5e c0          	vdivss %xmm0,%xmm1,%xmm0
  bf:	c5 fa 58 d0          	vaddss %xmm0,%xmm0,%xmm2
  c3:	c5 fa 11 55 a8       	vmovss %xmm2,-0x58(%rbp)
             2.0 * ( right.length() / screen.getWidth() ),
  c8:	48 8d 45 b8          	lea    -0x48(%rbp),%rax
  cc:	48 89 c7             	mov    %rax,%rdi
  cf:	e8 00 00 00 00       	callq  d4 <_ZN6CameraC1E6VectorIfLm3EES1_S1_S1_R6Screen+0xd4>
  d4:	c5 fa 11 45 a4       	vmovss %xmm0,-0x5c(%rbp)
  d9:	48 8b 45 b0          	mov    -0x50(%rbp),%rax
  dd:	48 89 c7             	mov    %rax,%rdi
  e0:	e8 00 00 00 00       	callq  e5 <_ZN6CameraC1E6VectorIfLm3EES1_S1_S1_R6Screen+0xe5>
  e5:	48 85 c0             	test   %rax,%rax
  e8:	78 07                	js     f1 <_ZN6CameraC1E6VectorIfLm3EES1_S1_S1_R6Screen+0xf1>
  ea:	c4 e1 fa 2a c0       	vcvtsi2ss %rax,%xmm0,%xmm0
  ef:	eb 15                	jmp    106 <_ZN6CameraC1E6VectorIfLm3EES1_S1_S1_R6Screen+0x106>
  f1:	48 89 c2             	mov    %rax,%rdx
  f4:	48 d1 ea             	shr    %rdx
  f7:	83 e0 01             	and    $0x1,%eax
  fa:	48 09 c2             	or     %rax,%rdx
  fd:	c4 e1 fa 2a c2       	vcvtsi2ss %rdx,%xmm0,%xmm0
 102:	c5 fa 58 c0          	vaddss %xmm0,%xmm0,%xmm0
 106:	c5 fa 10 5d a4       	vmovss -0x5c(%rbp),%xmm3
 10b:	c5 e2 5e c0          	vdivss %xmm0,%xmm3,%xmm0
             2.0 * ( up.length() / screen.getHeight() ) ) {
 10f:	c5 fa 58 c0          	vaddss %xmm0,%xmm0,%xmm0
 113:	4c 8b 5d b8          	mov    -0x48(%rbp),%r11
 117:	44 8b 55 c0          	mov    -0x40(%rbp),%r10d
 11b:	4c 8b 4d c8          	mov    -0x38(%rbp),%r9
 11f:	44 8b 45 d0          	mov    -0x30(%rbp),%r8d
 123:	48 8b 7d d8          	mov    -0x28(%rbp),%rdi
 127:	8b 75 e0             	mov    -0x20(%rbp),%esi
 12a:	48 8b 4d e8          	mov    -0x18(%rbp),%rcx
 12e:	8b 55 f0             	mov    -0x10(%rbp),%edx
 131:	48 8b 45 f8          	mov    -0x8(%rbp),%rax
 135:	c5 fa 10 65 a8       	vmovss -0x58(%rbp),%xmm4
 13a:	48 8d 64 24 f8       	lea    -0x8(%rsp),%rsp
 13f:	c5 fa 11 24 24       	vmovss %xmm4,(%rsp)
 144:	48 8d 64 24 f8       	lea    -0x8(%rsp),%rsp
 149:	c5 fa 11 04 24       	vmovss %xmm0,(%rsp)
 14e:	4c 89 5d a8          	mov    %r11,-0x58(%rbp)
 152:	c5 fa 7e 75 a8       	vmovq  -0x58(%rbp),%xmm6
 157:	4c 89 55 a8          	mov    %r10,-0x58(%rbp)
 15b:	c5 fa 7e 7d a8       	vmovq  -0x58(%rbp),%xmm7
 160:	4c 89 4d a8          	mov    %r9,-0x58(%rbp)
 164:	c5 fa 7e 65 a8       	vmovq  -0x58(%rbp),%xmm4
 169:	4c 89 45 a8          	mov    %r8,-0x58(%rbp)
 16d:	c5 fa 7e 6d a8       	vmovq  -0x58(%rbp),%xmm5
 172:	48 89 7d a8          	mov    %rdi,-0x58(%rbp)
 176:	c5 fa 7e 55 a8       	vmovq  -0x58(%rbp),%xmm2
 17b:	48 89 75 a8          	mov    %rsi,-0x58(%rbp)
 17f:	c5 fa 7e 5d a8       	vmovq  -0x58(%rbp),%xmm3
 184:	48 89 4d a8          	mov    %rcx,-0x58(%rbp)
 188:	c5 fa 7e 45 a8       	vmovq  -0x58(%rbp),%xmm0
 18d:	48 89 55 a8          	mov    %rdx,-0x58(%rbp)
 191:	c5 fa 7e 4d a8       	vmovq  -0x58(%rbp),%xmm1
 196:	48 89 c7             	mov    %rax,%rdi
 199:	e8 00 00 00 00       	callq  19e <_ZN6CameraC1E6VectorIfLm3EES1_S1_S1_R6Screen+0x19e>
 19e:	48 83 c4 10          	add    $0x10,%rsp
  }
 1a2:	90                   	nop
 1a3:	c9                   	leaveq 
 1a4:	c3                   	retq   

Disassembly of section .text._ZNK6Camera6getRayEmm:

0000000000000000 <_ZNK6Camera6getRayEmm>:
  Ray<FLOAT> getRay(size_t x, size_t y) const {
   0:	55                   	push   %rbp
   1:	48 89 e5             	mov    %rsp,%rbp
   4:	48 83 c4 80          	add    $0xffffffffffffff80,%rsp
   8:	48 89 7d a8          	mov    %rdi,-0x58(%rbp)
   c:	48 89 75 a0          	mov    %rsi,-0x60(%rbp)
  10:	48 89 55 98          	mov    %rdx,-0x68(%rbp)
  14:	48 89 4d 90          	mov    %rcx,-0x70(%rbp)
  18:	64 48 8b 04 25 28 00 	mov    %fs:0x28,%rax
  1f:	00 00 
  21:	48 89 45 f8          	mov    %rax,-0x8(%rbp)
  25:	31 c0                	xor    %eax,%eax
                  + (y * pixelHeight) * down )
  27:	48 8b 45 90          	mov    -0x70(%rbp),%rax
  2b:	48 85 c0             	test   %rax,%rax
  2e:	78 07                	js     37 <_ZNK6Camera6getRayEmm+0x37>
  30:	c4 e1 fa 2a c0       	vcvtsi2ss %rax,%xmm0,%xmm0
  35:	eb 15                	jmp    4c <_ZNK6Camera6getRayEmm+0x4c>
  37:	48 89 c2             	mov    %rax,%rdx
  3a:	48 d1 ea             	shr    %rdx
  3d:	83 e0 01             	and    $0x1,%eax
  40:	48 09 c2             	or     %rax,%rdx
  43:	c4 e1 fa 2a c2       	vcvtsi2ss %rdx,%xmm0,%xmm0
  48:	c5 fa 58 c0          	vaddss %xmm0,%xmm0,%xmm0
  4c:	48 8b 45 a0          	mov    -0x60(%rbp),%rax
  50:	c5 fa 10 48 34       	vmovss 0x34(%rax),%xmm1
  55:	c5 fa 59 c1          	vmulss %xmm1,%xmm0,%xmm0
  59:	48 8b 45 a0          	mov    -0x60(%rbp),%rax
  5d:	48 8b 50 18          	mov    0x18(%rax),%rdx
  61:	8b 40 20             	mov    0x20(%rax),%eax
  64:	48 89 55 88          	mov    %rdx,-0x78(%rbp)
  68:	c5 fa 7e 4d 88       	vmovq  -0x78(%rbp),%xmm1
  6d:	48 89 45 88          	mov    %rax,-0x78(%rbp)
  71:	c5 fa 7e 55 88       	vmovq  -0x78(%rbp),%xmm2
  76:	e8 00 00 00 00       	callq  7b <_ZNK6Camera6getRayEmm+0x7b>
  7b:	c4 e1 f9 7e c0       	vmovq  %xmm0,%rax
  80:	c4 e1 f9 7e ca       	vmovq  %xmm1,%rdx
  85:	48 89 45 e0          	mov    %rax,-0x20(%rbp)
  89:	8b 45 e8             	mov    -0x18(%rbp),%eax
  8c:	83 e0 00             	and    $0x0,%eax
  8f:	09 d0                	or     %edx,%eax
  91:	89 45 e8             	mov    %eax,-0x18(%rbp)
                  + (x * pixelWidth) * right
  94:	48 8b 45 98          	mov    -0x68(%rbp),%rax
  98:	48 85 c0             	test   %rax,%rax
  9b:	78 07                	js     a4 <_ZNK6Camera6getRayEmm+0xa4>
  9d:	c4 e1 fa 2a c0       	vcvtsi2ss %rax,%xmm0,%xmm0
  a2:	eb 15                	jmp    b9 <_ZNK6Camera6getRayEmm+0xb9>
  a4:	48 89 c2             	mov    %rax,%rdx
  a7:	48 d1 ea             	shr    %rdx
  aa:	83 e0 01             	and    $0x1,%eax
  ad:	48 09 c2             	or     %rax,%rdx
  b0:	c4 e1 fa 2a c2       	vcvtsi2ss %rdx,%xmm0,%xmm0
  b5:	c5 fa 58 c0          	vaddss %xmm0,%xmm0,%xmm0
  b9:	48 8b 45 a0          	mov    -0x60(%rbp),%rax
  bd:	c5 fa 10 48 30       	vmovss 0x30(%rax),%xmm1
  c2:	c5 fa 59 c1          	vmulss %xmm1,%xmm0,%xmm0
  c6:	48 8b 45 a0          	mov    -0x60(%rbp),%rax
  ca:	48 8b 50 24          	mov    0x24(%rax),%rdx
  ce:	8b 40 2c             	mov    0x2c(%rax),%eax
  d1:	48 89 55 88          	mov    %rdx,-0x78(%rbp)
  d5:	c5 fa 7e 4d 88       	vmovq  -0x78(%rbp),%xmm1
  da:	48 89 45 88          	mov    %rax,-0x78(%rbp)
  de:	c5 fa 7e 55 88       	vmovq  -0x78(%rbp),%xmm2
  e3:	e8 00 00 00 00       	callq  e8 <_ZNK6Camera6getRayEmm+0xe8>
  e8:	c4 e1 f9 7e c0       	vmovq  %xmm0,%rax
  ed:	c4 e1 f9 7e ca       	vmovq  %xmm1,%rdx
  f2:	48 89 45 ec          	mov    %rax,-0x14(%rbp)
  f6:	8b 45 f4             	mov    -0xc(%rbp),%eax
  f9:	83 e0 00             	and    $0x0,%eax
  fc:	09 d0                	or     %edx,%eax
  fe:	89 45 f4             	mov    %eax,-0xc(%rbp)
 101:	48 8b 45 a0          	mov    -0x60(%rbp),%rax
 105:	48 83 c0 0c          	add    $0xc,%rax
 109:	48 8b 4d ec          	mov    -0x14(%rbp),%rcx
 10d:	8b 55 f4             	mov    -0xc(%rbp),%edx
 110:	48 89 4d 88          	mov    %rcx,-0x78(%rbp)
 114:	c5 fa 7e 45 88       	vmovq  -0x78(%rbp),%xmm0
 119:	48 89 55 88          	mov    %rdx,-0x78(%rbp)
 11d:	c5 fa 7e 4d 88       	vmovq  -0x78(%rbp),%xmm1
 122:	48 89 c7             	mov    %rax,%rdi
 125:	e8 00 00 00 00       	callq  12a <_ZNK6Camera6getRayEmm+0x12a>
 12a:	c4 e1 f9 7e c0       	vmovq  %xmm0,%rax
 12f:	c4 e1 f9 7e ca       	vmovq  %xmm1,%rdx
 134:	48 89 45 c8          	mov    %rax,-0x38(%rbp)
 138:	8b 45 d0             	mov    -0x30(%rbp),%eax
 13b:	83 e0 00             	and    $0x0,%eax
 13e:	09 d0                	or     %edx,%eax
 140:	89 45 d0             	mov    %eax,-0x30(%rbp)
                  + (y * pixelHeight) * down )
 143:	48 8b 4d e0          	mov    -0x20(%rbp),%rcx
 147:	8b 55 e8             	mov    -0x18(%rbp),%edx
 14a:	48 8d 45 c8          	lea    -0x38(%rbp),%rax
 14e:	48 89 4d 88          	mov    %rcx,-0x78(%rbp)
 152:	c5 fa 7e 45 88       	vmovq  -0x78(%rbp),%xmm0
 157:	48 89 55 88          	mov    %rdx,-0x78(%rbp)
 15b:	c5 fa 7e 4d 88       	vmovq  -0x78(%rbp),%xmm1
 160:	48 89 c7             	mov    %rax,%rdi
 163:	e8 00 00 00 00       	callq  168 <_ZNK6Camera6getRayEmm+0x168>
 168:	c4 e1 f9 7e c0       	vmovq  %xmm0,%rax
 16d:	c4 e1 f9 7e ca       	vmovq  %xmm1,%rdx
 172:	48 89 45 d4          	mov    %rax,-0x2c(%rbp)
 176:	8b 45 dc             	mov    -0x24(%rbp),%eax
 179:	83 e0 00             	and    $0x0,%eax
 17c:	09 d0                	or     %edx,%eax
 17e:	89 45 dc             	mov    %eax,-0x24(%rbp)
                  - eye;
 181:	48 8b 45 a0          	mov    -0x60(%rbp),%rax
 185:	48 8b 08             	mov    (%rax),%rcx
 188:	8b 50 08             	mov    0x8(%rax),%edx
 18b:	48 8d 45 d4          	lea    -0x2c(%rbp),%rax
 18f:	48 89 4d 88          	mov    %rcx,-0x78(%rbp)
 193:	c5 fa 7e 45 88       	vmovq  -0x78(%rbp),%xmm0
 198:	48 89 55 88          	mov    %rdx,-0x78(%rbp)
 19c:	c5 fa 7e 4d 88       	vmovq  -0x78(%rbp),%xmm1
 1a1:	48 89 c7             	mov    %rax,%rdi
 1a4:	e8 00 00 00 00       	callq  1a9 <_ZNK6Camera6getRayEmm+0x1a9>
 1a9:	c4 e1 f9 7e c0       	vmovq  %xmm0,%rax
 1ae:	c4 e1 f9 7e ca       	vmovq  %xmm1,%rdx
 1b3:	48 89 45 bc          	mov    %rax,-0x44(%rbp)
 1b7:	8b 45 c4             	mov    -0x3c(%rbp),%eax
 1ba:	83 e0 00             	and    $0x0,%eax
 1bd:	09 d0                	or     %edx,%eax
 1bf:	89 45 c4             	mov    %eax,-0x3c(%rbp)
    return Ray<FLOAT>(eye, direction);
 1c2:	48 8b 7d bc          	mov    -0x44(%rbp),%rdi
 1c6:	8b 75 c4             	mov    -0x3c(%rbp),%esi
 1c9:	48 8b 45 a0          	mov    -0x60(%rbp),%rax
 1cd:	48 8b 08             	mov    (%rax),%rcx
 1d0:	8b 50 08             	mov    0x8(%rax),%edx
 1d3:	48 8b 45 a8          	mov    -0x58(%rbp),%rax
 1d7:	48 89 7d 88          	mov    %rdi,-0x78(%rbp)
 1db:	c5 fa 7e 55 88       	vmovq  -0x78(%rbp),%xmm2
 1e0:	48 89 75 88          	mov    %rsi,-0x78(%rbp)
 1e4:	c5 fa 7e 5d 88       	vmovq  -0x78(%rbp),%xmm3
 1e9:	48 89 4d 88          	mov    %rcx,-0x78(%rbp)
 1ed:	c5 fa 7e 45 88       	vmovq  -0x78(%rbp),%xmm0
 1f2:	48 89 55 88          	mov    %rdx,-0x78(%rbp)
 1f6:	c5 fa 7e 4d 88       	vmovq  -0x78(%rbp),%xmm1
 1fb:	48 89 c7             	mov    %rax,%rdi
 1fe:	e8 00 00 00 00       	callq  203 <_ZNK6Camera6getRayEmm+0x203>
  }
 203:	48 8b 45 a8          	mov    -0x58(%rbp),%rax
 207:	48 8b 75 f8          	mov    -0x8(%rbp),%rsi
 20b:	64 48 33 34 25 28 00 	xor    %fs:0x28,%rsi
 212:	00 00 
 214:	74 05                	je     21b <_ZNK6Camera6getRayEmm+0x21b>
 216:	e8 00 00 00 00       	callq  21b <_ZNK6Camera6getRayEmm+0x21b>
 21b:	c9                   	leaveq 
 21c:	c3                   	retq   

Disassembly of section .text._ZN5LightC2E6VectorIfLm3EE5Color:

0000000000000000 <_ZN5LightC1E6VectorIfLm3EE5Color>:
  Light(Vector<FLOAT, 3> position = Vector<FLOAT, 3>({0.0, 0.0, 1000.0}),
   0:	55                   	push   %rbp
   1:	48 89 e5             	mov    %rsp,%rbp
   4:	48 89 7d f8          	mov    %rdi,-0x8(%rbp)
   8:	c4 e1 f9 7e c0       	vmovq  %xmm0,%rax
   d:	c4 e1 f9 7e c9       	vmovq  %xmm1,%rcx
  12:	c4 e1 f9 7e d2       	vmovq  %xmm2,%rdx
  17:	c5 f8 28 c3          	vmovaps %xmm3,%xmm0
  1b:	48 89 45 e8          	mov    %rax,-0x18(%rbp)
  1f:	8b 45 f0             	mov    -0x10(%rbp),%eax
  22:	83 e0 00             	and    $0x0,%eax
  25:	09 c8                	or     %ecx,%eax
  27:	89 45 f0             	mov    %eax,-0x10(%rbp)
  2a:	48 89 55 d8          	mov    %rdx,-0x28(%rbp)
  2e:	c5 fa 11 45 e0       	vmovss %xmm0,-0x20(%rbp)
    : position(position), color(color) {
  33:	48 8b 45 f8          	mov    -0x8(%rbp),%rax
  37:	48 8b 55 e8          	mov    -0x18(%rbp),%rdx
  3b:	48 89 10             	mov    %rdx,(%rax)
  3e:	8b 55 f0             	mov    -0x10(%rbp),%edx
  41:	89 50 08             	mov    %edx,0x8(%rax)
  44:	48 8b 45 f8          	mov    -0x8(%rbp),%rax
  48:	48 8b 55 d8          	mov    -0x28(%rbp),%rdx
  4c:	48 89 50 0c          	mov    %rdx,0xc(%rax)
  50:	8b 55 e0             	mov    -0x20(%rbp),%edx
  53:	89 50 14             	mov    %edx,0x14(%rax)
  }
  56:	90                   	nop
  57:	5d                   	pop    %rbp
  58:	c3                   	retq   

Disassembly of section .text._ZNK5Light8getColorEv:

0000000000000000 <_ZNK5Light8getColorEv>:
  Color getColor() const {
   0:	4c 8d 54 24 08       	lea    0x8(%rsp),%r10
   5:	48 83 e4 e0          	and    $0xffffffffffffffe0,%rsp
   9:	41 ff 72 f8          	pushq  -0x8(%r10)
   d:	55                   	push   %rbp
   e:	48 89 e5             	mov    %rsp,%rbp
  11:	41 52                	push   %r10
  13:	48 89 7d d8          	mov    %rdi,-0x28(%rbp)
     return color;
  17:	48 8b 45 d8          	mov    -0x28(%rbp),%rax
  1b:	48 8b 50 0c          	mov    0xc(%rax),%rdx
  1f:	48 89 55 e4          	mov    %rdx,-0x1c(%rbp)
  23:	8b 40 14             	mov    0x14(%rax),%eax
  26:	89 45 ec             	mov    %eax,-0x14(%rbp)
  29:	48 8b 45 e4          	mov    -0x1c(%rbp),%rax
  2d:	c5 fa 10 45 ec       	vmovss -0x14(%rbp),%xmm0
  32:	c5 f8 28 c8          	vmovaps %xmm0,%xmm1
  }
  36:	48 89 45 a8          	mov    %rax,-0x58(%rbp)
  3a:	c5 fa 7e 45 a8       	vmovq  -0x58(%rbp),%xmm0
  3f:	41 5a                	pop    %r10
  41:	5d                   	pop    %rbp
  42:	49 8d 62 f8          	lea    -0x8(%r10),%rsp
  46:	c3                   	retq   

Disassembly of section .text._ZNK5Light11getPositionEv:

0000000000000000 <_ZNK5Light11getPositionEv>:
  Vector<FLOAT, 3> getPosition() const {
   0:	4c 8d 54 24 08       	lea    0x8(%rsp),%r10
   5:	48 83 e4 e0          	and    $0xffffffffffffffe0,%rsp
   9:	41 ff 72 f8          	pushq  -0x8(%r10)
   d:	55                   	push   %rbp
   e:	48 89 e5             	mov    %rsp,%rbp
  11:	41 52                	push   %r10
  13:	48 81 ec 88 00 00 00 	sub    $0x88,%rsp
  1a:	48 89 7d c8          	mov    %rdi,-0x38(%rbp)
  1e:	64 48 8b 04 25 28 00 	mov    %fs:0x28,%rax
  25:	00 00 
  27:	48 89 45 e8          	mov    %rax,-0x18(%rbp)
  2b:	31 c0                	xor    %eax,%eax
    return position;
  2d:	48 8b 45 c8          	mov    -0x38(%rbp),%rax
  31:	48 8b 10             	mov    (%rax),%rdx
  34:	48 89 55 dc          	mov    %rdx,-0x24(%rbp)
  38:	8b 40 08             	mov    0x8(%rax),%eax
  3b:	89 45 e4             	mov    %eax,-0x1c(%rbp)
  3e:	48 8b 55 dc          	mov    -0x24(%rbp),%rdx
  42:	8b 45 e4             	mov    -0x1c(%rbp),%eax
  }
  45:	48 89 55 88          	mov    %rdx,-0x78(%rbp)
  49:	c5 fa 7e 45 88       	vmovq  -0x78(%rbp),%xmm0
  4e:	48 89 45 88          	mov    %rax,-0x78(%rbp)
  52:	c5 fa 7e 4d 88       	vmovq  -0x78(%rbp),%xmm1
  57:	48 8b 45 e8          	mov    -0x18(%rbp),%rax
  5b:	64 48 33 04 25 28 00 	xor    %fs:0x28,%rax
  62:	00 00 
  64:	74 05                	je     6b <_ZNK5Light11getPositionEv+0x6b>
  66:	e8 00 00 00 00       	callq  6b <_ZNK5Light11getPositionEv+0x6b>
  6b:	48 81 c4 88 00 00 00 	add    $0x88,%rsp
  72:	41 5a                	pop    %r10
  74:	5d                   	pop    %rbp
  75:	49 8d 62 f8          	lea    -0x8(%r10),%rsp
  79:	c3                   	retq   

Disassembly of section .text._ZN5Scene3addE8TriangleIfE:

0000000000000000 <_ZN5Scene3addE8TriangleIfE>:
  void add(Triangle<FLOAT> triangle) {
   0:	55                   	push   %rbp
   1:	48 89 e5             	mov    %rsp,%rbp
   4:	48 83 ec 10          	sub    $0x10,%rsp
   8:	48 89 7d f8          	mov    %rdi,-0x8(%rbp)
    triangles.push_back( triangle );
   c:	48 8b 45 f8          	mov    -0x8(%rbp),%rax
  10:	48 8d 75 10          	lea    0x10(%rbp),%rsi
  14:	48 89 c7             	mov    %rax,%rdi
  17:	e8 00 00 00 00       	callq  1c <_ZN5Scene3addE8TriangleIfE+0x1c>
  }
  1c:	90                   	nop
  1d:	c9                   	leaveq 
  1e:	c3                   	retq   

Disassembly of section .text._ZN5Scene8addLightE5Light:

0000000000000000 <_ZN5Scene8addLightE5Light>:
  void addLight(Light light) {
   0:	55                   	push   %rbp
   1:	48 89 e5             	mov    %rsp,%rbp
   4:	48 83 ec 10          	sub    $0x10,%rsp
   8:	48 89 7d f8          	mov    %rdi,-0x8(%rbp)
    lights.push_back( light );
   c:	48 8b 45 f8          	mov    -0x8(%rbp),%rax
  10:	48 83 c0 18          	add    $0x18,%rax
  14:	48 8d 75 10          	lea    0x10(%rbp),%rsi
  18:	48 89 c7             	mov    %rax,%rdi
  1b:	e8 00 00 00 00       	callq  20 <_ZN5Scene8addLightE5Light+0x20>
  }
  20:	90                   	nop
  21:	c9                   	leaveq 
  22:	c3                   	retq   

Disassembly of section .text._ZN5Scene12getTrianglesEv:

0000000000000000 <_ZN5Scene12getTrianglesEv>:
  std::vector< Triangle<FLOAT> * > getTriangles() {
   0:	55                   	push   %rbp
   1:	48 89 e5             	mov    %rsp,%rbp
   4:	53                   	push   %rbx
   5:	48 83 ec 38          	sub    $0x38,%rsp
   9:	48 89 7d c8          	mov    %rdi,-0x38(%rbp)
   d:	48 89 75 c0          	mov    %rsi,-0x40(%rbp)
  11:	64 48 8b 04 25 28 00 	mov    %fs:0x28,%rax
  18:	00 00 
  1a:	48 89 45 e8          	mov    %rax,-0x18(%rbp)
  1e:	31 c0                	xor    %eax,%eax
    std::vector< Triangle<FLOAT> * > triangles_ptr;
  20:	48 8b 45 c8          	mov    -0x38(%rbp),%rax
  24:	48 89 c7             	mov    %rax,%rdi
  27:	e8 00 00 00 00       	callq  2c <_ZN5Scene12getTrianglesEv+0x2c>
    for (size_t i = 0; i < triangles.size(); i++) {
  2c:	48 c7 45 e0 00 00 00 	movq   $0x0,-0x20(%rbp)
  33:	00 
  34:	48 8b 45 c0          	mov    -0x40(%rbp),%rax
  38:	48 89 c7             	mov    %rax,%rdi
  3b:	e8 00 00 00 00       	callq  40 <_ZN5Scene12getTrianglesEv+0x40>
  40:	48 39 45 e0          	cmp    %rax,-0x20(%rbp)
  44:	0f 92 c0             	setb   %al
  47:	84 c0                	test   %al,%al
  49:	74 4b                	je     96 <_ZN5Scene12getTrianglesEv+0x96>
      triangles_ptr.push_back( &triangles[i] );      
  4b:	48 8b 45 c0          	mov    -0x40(%rbp),%rax
  4f:	48 8b 55 e0          	mov    -0x20(%rbp),%rdx
  53:	48 89 d6             	mov    %rdx,%rsi
  56:	48 89 c7             	mov    %rax,%rdi
  59:	e8 00 00 00 00       	callq  5e <_ZN5Scene12getTrianglesEv+0x5e>
  5e:	48 89 45 d8          	mov    %rax,-0x28(%rbp)
  62:	48 8d 55 d8          	lea    -0x28(%rbp),%rdx
  66:	48 8b 45 c8          	mov    -0x38(%rbp),%rax
  6a:	48 89 d6             	mov    %rdx,%rsi
  6d:	48 89 c7             	mov    %rax,%rdi
  70:	e8 00 00 00 00       	callq  75 <_ZN5Scene12getTrianglesEv+0x75>
    for (size_t i = 0; i < triangles.size(); i++) {
  75:	48 83 45 e0 01       	addq   $0x1,-0x20(%rbp)
  7a:	eb b8                	jmp    34 <_ZN5Scene12getTrianglesEv+0x34>
  7c:	48 89 c3             	mov    %rax,%rbx
  7f:	48 8b 45 c8          	mov    -0x38(%rbp),%rax
  83:	48 89 c7             	mov    %rax,%rdi
  86:	e8 00 00 00 00       	callq  8b <_ZN5Scene12getTrianglesEv+0x8b>
  8b:	48 89 d8             	mov    %rbx,%rax
  8e:	48 89 c7             	mov    %rax,%rdi
  91:	e8 00 00 00 00       	callq  96 <_ZN5Scene12getTrianglesEv+0x96>
    return triangles_ptr;
  96:	90                   	nop
  }
  97:	48 8b 45 c8          	mov    -0x38(%rbp),%rax
  9b:	48 8b 4d e8          	mov    -0x18(%rbp),%rcx
  9f:	64 48 33 0c 25 28 00 	xor    %fs:0x28,%rcx
  a6:	00 00 
  a8:	74 05                	je     af <_ZN5Scene12getTrianglesEv+0xaf>
  aa:	e8 00 00 00 00       	callq  af <_ZN5Scene12getTrianglesEv+0xaf>
  af:	48 83 c4 38          	add    $0x38,%rsp
  b3:	5b                   	pop    %rbx
  b4:	5d                   	pop    %rbp
  b5:	c3                   	retq   

Disassembly of section .text._ZN5Scene18hasNearestTriangleERK3RayIfERP8TriangleIfERfS8_S8_b:

0000000000000000 <_ZN5Scene18hasNearestTriangleERK3RayIfERP8TriangleIfERfS8_S8_b>:
bool hasNearestTriangle(const Ray<FLOAT> & ray, Triangle<FLOAT> *  & nearest_triangle, FLOAT &t, FLOAT &u, FLOAT &v, const bool NEAREST = true)  {
   0:	55                   	push   %rbp
   1:	48 89 e5             	mov    %rsp,%rbp
   4:	48 83 c4 80          	add    $0xffffffffffffff80,%rsp
   8:	48 89 7d b8          	mov    %rdi,-0x48(%rbp)
   c:	48 89 75 b0          	mov    %rsi,-0x50(%rbp)
  10:	48 89 55 a8          	mov    %rdx,-0x58(%rbp)
  14:	48 89 4d a0          	mov    %rcx,-0x60(%rbp)
  18:	4c 89 45 98          	mov    %r8,-0x68(%rbp)
  1c:	4c 89 4d 90          	mov    %r9,-0x70(%rbp)
  20:	8b 45 10             	mov    0x10(%rbp),%eax
  23:	88 45 8c             	mov    %al,-0x74(%rbp)
  26:	64 48 8b 04 25 28 00 	mov    %fs:0x28,%rax
  2d:	00 00 
  2f:	48 89 45 f8          	mov    %rax,-0x8(%rbp)
  33:	31 c0                	xor    %eax,%eax
  FLOAT minimum_t = INFINITY;
  35:	c5 fa 10 05 00 00 00 	vmovss 0x0(%rip),%xmm0        # 3d <_ZN5Scene18hasNearestTriangleERK3RayIfERP8TriangleIfERfS8_S8_b+0x3d>
  3c:	00 
  3d:	c5 fa 11 45 c4       	vmovss %xmm0,-0x3c(%rbp)
  FLOAT minimum_u  = 0.0, minimum_v = 0.0;
  42:	c5 f8 57 c0          	vxorps %xmm0,%xmm0,%xmm0
  46:	c5 fa 11 45 c8       	vmovss %xmm0,-0x38(%rbp)
  4b:	c5 f8 57 c0          	vxorps %xmm0,%xmm0,%xmm0
  4f:	c5 fa 11 45 cc       	vmovss %xmm0,-0x34(%rbp)
  for (size_t i = 0u; i < triangles.size(); i++) {
  54:	48 c7 45 d0 00 00 00 	movq   $0x0,-0x30(%rbp)
  5b:	00 
  5c:	48 8b 45 b8          	mov    -0x48(%rbp),%rax
  60:	48 89 c7             	mov    %rax,%rdi
  63:	e8 00 00 00 00       	callq  68 <_ZN5Scene18hasNearestTriangleERK3RayIfERP8TriangleIfERfS8_S8_b+0x68>
  68:	48 39 45 d0          	cmp    %rax,-0x30(%rbp)
  6c:	0f 92 c0             	setb   %al
  6f:	84 c0                	test   %al,%al
  71:	0f 84 4f 01 00 00    	je     1c6 <_ZN5Scene18hasNearestTriangleERK3RayIfERP8TriangleIfERfS8_S8_b+0x1c6>
    Triangle<FLOAT> *triangle = &triangles[i];
  77:	48 8b 45 b8          	mov    -0x48(%rbp),%rax
  7b:	48 8b 55 d0          	mov    -0x30(%rbp),%rdx
  7f:	48 89 d6             	mov    %rdx,%rsi
  82:	48 89 c7             	mov    %rax,%rdi
  85:	e8 00 00 00 00       	callq  8a <_ZN5Scene18hasNearestTriangleERK3RayIfERP8TriangleIfERfS8_S8_b+0x8a>
  8a:	48 89 45 d8          	mov    %rax,-0x28(%rbp)
    stats.no_ray_triangle_intersection_tests++;
  8e:	48 8b 05 00 00 00 00 	mov    0x0(%rip),%rax        # 95 <_ZN5Scene18hasNearestTriangleERK3RayIfERP8TriangleIfERfS8_S8_b+0x95>
  95:	48 83 c0 01          	add    $0x1,%rax
  99:	48 89 05 00 00 00 00 	mov    %rax,0x0(%rip)        # a0 <_ZN5Scene18hasNearestTriangleERK3RayIfERP8TriangleIfERfS8_S8_b+0xa0>
    bool intersect = triangle->intersects(ray.getOrigin(), ray.getDirection(), t, u, v, minimum_t);
  a0:	48 8b 45 b0          	mov    -0x50(%rbp),%rax
  a4:	48 89 c7             	mov    %rax,%rdi
  a7:	e8 00 00 00 00       	callq  ac <_ZN5Scene18hasNearestTriangleERK3RayIfERP8TriangleIfERfS8_S8_b+0xac>
  ac:	c4 e1 f9 7e c0       	vmovq  %xmm0,%rax
  b1:	c4 e1 f9 7e ca       	vmovq  %xmm1,%rdx
  b6:	48 89 45 e0          	mov    %rax,-0x20(%rbp)
  ba:	8b 45 e8             	mov    -0x18(%rbp),%eax
  bd:	83 e0 00             	and    $0x0,%eax
  c0:	09 d0                	or     %edx,%eax
  c2:	89 45 e8             	mov    %eax,-0x18(%rbp)
  c5:	48 8b 45 b0          	mov    -0x50(%rbp),%rax
  c9:	48 89 c7             	mov    %rax,%rdi
  cc:	e8 00 00 00 00       	callq  d1 <_ZN5Scene18hasNearestTriangleERK3RayIfERP8TriangleIfERfS8_S8_b+0xd1>
  d1:	c4 e1 f9 7e c0       	vmovq  %xmm0,%rax
  d6:	c4 e1 f9 7e ca       	vmovq  %xmm1,%rdx
  db:	48 89 45 ec          	mov    %rax,-0x14(%rbp)
  df:	8b 45 f4             	mov    -0xc(%rbp),%eax
  e2:	83 e0 00             	and    $0x0,%eax
  e5:	09 d0                	or     %edx,%eax
  e7:	89 45 f4             	mov    %eax,-0xc(%rbp)
  ea:	c5 fa 10 45 c4       	vmovss -0x3c(%rbp),%xmm0
  ef:	48 8b 4d 90          	mov    -0x70(%rbp),%rcx
  f3:	48 8b 55 98          	mov    -0x68(%rbp),%rdx
  f7:	48 8b 75 a0          	mov    -0x60(%rbp),%rsi
  fb:	4c 8b 55 e0          	mov    -0x20(%rbp),%r10
  ff:	44 8b 4d e8          	mov    -0x18(%rbp),%r9d
 103:	4c 8b 45 ec          	mov    -0x14(%rbp),%r8
 107:	8b 7d f4             	mov    -0xc(%rbp),%edi
 10a:	48 8b 45 d8          	mov    -0x28(%rbp),%rax
 10e:	c5 f8 28 e0          	vmovaps %xmm0,%xmm4
 112:	4c 89 55 80          	mov    %r10,-0x80(%rbp)
 116:	c5 fa 7e 55 80       	vmovq  -0x80(%rbp),%xmm2
 11b:	4c 89 4d 80          	mov    %r9,-0x80(%rbp)
 11f:	c5 fa 7e 5d 80       	vmovq  -0x80(%rbp),%xmm3
 124:	4c 89 45 80          	mov    %r8,-0x80(%rbp)
 128:	c5 fa 7e 45 80       	vmovq  -0x80(%rbp),%xmm0
 12d:	48 89 7d 80          	mov    %rdi,-0x80(%rbp)
 131:	c5 fa 7e 4d 80       	vmovq  -0x80(%rbp),%xmm1
 136:	48 89 c7             	mov    %rax,%rdi
 139:	e8 00 00 00 00       	callq  13e <_ZN5Scene18hasNearestTriangleERK3RayIfERP8TriangleIfERfS8_S8_b+0x13e>
 13e:	88 45 c3             	mov    %al,-0x3d(%rbp)
    if ( intersect ) {
 141:	80 7d c3 00          	cmpb   $0x0,-0x3d(%rbp)
 145:	74 75                	je     1bc <_ZN5Scene18hasNearestTriangleERK3RayIfERP8TriangleIfERfS8_S8_b+0x1bc>
      stats.no_ray_triangle_intersections_found++;          
 147:	48 8b 05 00 00 00 00 	mov    0x0(%rip),%rax        # 14e <_ZN5Scene18hasNearestTriangleERK3RayIfERP8TriangleIfERfS8_S8_b+0x14e>
 14e:	48 83 c0 01          	add    $0x1,%rax
 152:	48 89 05 00 00 00 00 	mov    %rax,0x0(%rip)        # 159 <_ZN5Scene18hasNearestTriangleERK3RayIfERP8TriangleIfERfS8_S8_b+0x159>
      if ( (nearest_triangle == nullptr)  || (t < minimum_t) ) {      
 159:	48 8b 45 a8          	mov    -0x58(%rbp),%rax
 15d:	48 8b 00             	mov    (%rax),%rax
 160:	48 85 c0             	test   %rax,%rax
 163:	74 13                	je     178 <_ZN5Scene18hasNearestTriangleERK3RayIfERP8TriangleIfERfS8_S8_b+0x178>
 165:	48 8b 45 a0          	mov    -0x60(%rbp),%rax
 169:	c5 fa 10 08          	vmovss (%rax),%xmm1
 16d:	c5 fa 10 45 c4       	vmovss -0x3c(%rbp),%xmm0
 172:	c5 f8 2e c1          	vucomiss %xmm1,%xmm0
 176:	76 44                	jbe    1bc <_ZN5Scene18hasNearestTriangleERK3RayIfERP8TriangleIfERfS8_S8_b+0x1bc>
        minimum_t = t;
 178:	48 8b 45 a0          	mov    -0x60(%rbp),%rax
 17c:	c5 fa 10 00          	vmovss (%rax),%xmm0
 180:	c5 fa 11 45 c4       	vmovss %xmm0,-0x3c(%rbp)
        minimum_u = u;
 185:	48 8b 45 98          	mov    -0x68(%rbp),%rax
 189:	c5 fa 10 00          	vmovss (%rax),%xmm0
 18d:	c5 fa 11 45 c8       	vmovss %xmm0,-0x38(%rbp)
        minimum_v = v;
 192:	48 8b 45 90          	mov    -0x70(%rbp),%rax
 196:	c5 fa 10 00          	vmovss (%rax),%xmm0
 19a:	c5 fa 11 45 cc       	vmovss %xmm0,-0x34(%rbp)
        nearest_triangle = triangle;
 19f:	48 8b 45 a8          	mov    -0x58(%rbp),%rax
 1a3:	48 8b 55 d8          	mov    -0x28(%rbp),%rdx
 1a7:	48 89 10             	mov    %rdx,(%rax)
        if ( ! NEAREST ) {
 1aa:	0f b6 45 8c          	movzbl -0x74(%rbp),%eax
 1ae:	83 f0 01             	xor    $0x1,%eax
 1b1:	84 c0                	test   %al,%al
 1b3:	74 07                	je     1bc <_ZN5Scene18hasNearestTriangleERK3RayIfERP8TriangleIfERfS8_S8_b+0x1bc>
          return true;
 1b5:	b8 01 00 00 00       	mov    $0x1,%eax
 1ba:	eb 3e                	jmp    1fa <_ZN5Scene18hasNearestTriangleERK3RayIfERP8TriangleIfERfS8_S8_b+0x1fa>
  for (size_t i = 0u; i < triangles.size(); i++) {
 1bc:	48 83 45 d0 01       	addq   $0x1,-0x30(%rbp)
 1c1:	e9 96 fe ff ff       	jmpq   5c <_ZN5Scene18hasNearestTriangleERK3RayIfERP8TriangleIfERfS8_S8_b+0x5c>
  t = minimum_t;
 1c6:	48 8b 45 a0          	mov    -0x60(%rbp),%rax
 1ca:	c5 fa 10 45 c4       	vmovss -0x3c(%rbp),%xmm0
 1cf:	c5 fa 11 00          	vmovss %xmm0,(%rax)
  u = minimum_u;
 1d3:	48 8b 45 98          	mov    -0x68(%rbp),%rax
 1d7:	c5 fa 10 45 c8       	vmovss -0x38(%rbp),%xmm0
 1dc:	c5 fa 11 00          	vmovss %xmm0,(%rax)
  v = minimum_v;
 1e0:	48 8b 45 90          	mov    -0x70(%rbp),%rax
 1e4:	c5 fa 10 45 cc       	vmovss -0x34(%rbp),%xmm0
 1e9:	c5 fa 11 00          	vmovss %xmm0,(%rax)
  return nearest_triangle != nullptr;
 1ed:	48 8b 45 a8          	mov    -0x58(%rbp),%rax
 1f1:	48 8b 00             	mov    (%rax),%rax
 1f4:	48 85 c0             	test   %rax,%rax
 1f7:	0f 95 c0             	setne  %al
}
 1fa:	48 8b 4d f8          	mov    -0x8(%rbp),%rcx
 1fe:	64 48 33 0c 25 28 00 	xor    %fs:0x28,%rcx
 205:	00 00 
 207:	74 05                	je     20e <_ZN5Scene18hasNearestTriangleERK3RayIfERP8TriangleIfERfS8_S8_b+0x20e>
 209:	e8 00 00 00 00       	callq  20e <_ZN5Scene18hasNearestTriangleERK3RayIfERP8TriangleIfERfS8_S8_b+0x20e>
 20e:	c9                   	leaveq 
 20f:	c3                   	retq   

Disassembly of section .text._ZN5Scene7blockedERK3RayIfE:

0000000000000000 <_ZN5Scene7blockedERK3RayIfE>:
  bool blocked(const Ray<FLOAT> & ray)  {
   0:	55                   	push   %rbp
   1:	48 89 e5             	mov    %rsp,%rbp
   4:	48 83 ec 30          	sub    $0x30,%rsp
   8:	48 89 7d d8          	mov    %rdi,-0x28(%rbp)
   c:	48 89 75 d0          	mov    %rsi,-0x30(%rbp)
  10:	64 48 8b 04 25 28 00 	mov    %fs:0x28,%rax
  17:	00 00 
  19:	48 89 45 f8          	mov    %rax,-0x8(%rbp)
  1d:	31 c0                	xor    %eax,%eax
     Triangle<FLOAT> * triangle = nullptr;
  1f:	48 c7 45 f0 00 00 00 	movq   $0x0,-0x10(%rbp)
  26:	00 
     return hasNearestTriangle(ray, triangle, t, u, v, false);
  27:	4c 8d 45 ec          	lea    -0x14(%rbp),%r8
  2b:	48 8d 7d e8          	lea    -0x18(%rbp),%rdi
  2f:	48 8d 4d e4          	lea    -0x1c(%rbp),%rcx
  33:	48 8d 55 f0          	lea    -0x10(%rbp),%rdx
  37:	48 8b 75 d0          	mov    -0x30(%rbp),%rsi
  3b:	48 8b 45 d8          	mov    -0x28(%rbp),%rax
  3f:	48 83 ec 08          	sub    $0x8,%rsp
  43:	6a 00                	pushq  $0x0
  45:	4d 89 c1             	mov    %r8,%r9
  48:	49 89 f8             	mov    %rdi,%r8
  4b:	48 89 c7             	mov    %rax,%rdi
  4e:	e8 00 00 00 00       	callq  53 <_ZN5Scene7blockedERK3RayIfE+0x53>
  53:	48 83 c4 10          	add    $0x10,%rsp
  }
  57:	48 8b 55 f8          	mov    -0x8(%rbp),%rdx
  5b:	64 48 33 14 25 28 00 	xor    %fs:0x28,%rdx
  62:	00 00 
  64:	74 05                	je     6b <_ZN5Scene7blockedERK3RayIfE+0x6b>
  66:	e8 00 00 00 00       	callq  6b <_ZN5Scene7blockedERK3RayIfE+0x6b>
  6b:	c9                   	leaveq 
  6c:	c3                   	retq   

Disassembly of section .text._ZN5Scene5shadeERK3RayIfER8TriangleIfER8MaterialRfS9_S9_:

0000000000000000 <_ZN5Scene5shadeERK3RayIfER8TriangleIfER8MaterialRfS9_S9_>:
  Color shade(const Ray<FLOAT> & ray, Triangle<FLOAT> & triangle, Material & material, FLOAT &t, FLOAT &u, FLOAT &v)  {
   0:	4c 8d 54 24 08       	lea    0x8(%rsp),%r10
   5:	48 83 e4 e0          	and    $0xffffffffffffffe0,%rsp
   9:	41 ff 72 f8          	pushq  -0x8(%r10)
   d:	55                   	push   %rbp
   e:	48 89 e5             	mov    %rsp,%rbp
  11:	41 52                	push   %r10
  13:	48 81 ec a8 01 00 00 	sub    $0x1a8,%rsp
  1a:	4c 89 d0             	mov    %r10,%rax
  1d:	48 89 bd d8 fe ff ff 	mov    %rdi,-0x128(%rbp)
  24:	48 89 b5 d0 fe ff ff 	mov    %rsi,-0x130(%rbp)
  2b:	48 89 95 c8 fe ff ff 	mov    %rdx,-0x138(%rbp)
  32:	48 89 8d c0 fe ff ff 	mov    %rcx,-0x140(%rbp)
  39:	4c 89 85 b8 fe ff ff 	mov    %r8,-0x148(%rbp)
  40:	4c 89 8d b0 fe ff ff 	mov    %r9,-0x150(%rbp)
  47:	48 8b 00             	mov    (%rax),%rax
  4a:	48 89 85 a8 fe ff ff 	mov    %rax,-0x158(%rbp)
  51:	64 48 8b 04 25 28 00 	mov    %fs:0x28,%rax
  58:	00 00 
  5a:	48 89 45 e8          	mov    %rax,-0x18(%rbp)
  5e:	31 c0                	xor    %eax,%eax
    Color color =  material.getAmbient() * material.getColor();
  60:	48 8b 85 c0 fe ff ff 	mov    -0x140(%rbp),%rax
  67:	48 89 c7             	mov    %rax,%rdi
  6a:	e8 00 00 00 00       	callq  6f <_ZN5Scene5shadeERK3RayIfER8TriangleIfER8MaterialRfS9_S9_+0x6f>
  6f:	c4 e1 f9 7e c0       	vmovq  %xmm0,%rax
  74:	c5 f8 28 c1          	vmovaps %xmm1,%xmm0
  78:	48 89 85 14 ff ff ff 	mov    %rax,-0xec(%rbp)
  7f:	c5 fa 11 85 1c ff ff 	vmovss %xmm0,-0xe4(%rbp)
  86:	ff 
  87:	48 8b 85 c0 fe ff ff 	mov    -0x140(%rbp),%rax
  8e:	48 89 c7             	mov    %rax,%rdi
  91:	e8 00 00 00 00       	callq  96 <_ZN5Scene5shadeERK3RayIfER8TriangleIfER8MaterialRfS9_S9_+0x96>
  96:	c5 f8 28 d8          	vmovaps %xmm0,%xmm3
  9a:	48 8b 85 14 ff ff ff 	mov    -0xec(%rbp),%rax
  a1:	c5 fa 10 85 1c ff ff 	vmovss -0xe4(%rbp),%xmm0
  a8:	ff 
  a9:	48 89 85 68 fe ff ff 	mov    %rax,-0x198(%rbp)
  b0:	c5 fa 7e 8d 68 fe ff 	vmovq  -0x198(%rbp),%xmm1
  b7:	ff 
  b8:	c5 f8 28 d0          	vmovaps %xmm0,%xmm2
  bc:	c5 f8 28 c3          	vmovaps %xmm3,%xmm0
  c0:	e8 00 00 00 00       	callq  c5 <_ZN5Scene5shadeERK3RayIfER8TriangleIfER8MaterialRfS9_S9_+0xc5>
  c5:	c4 e1 f9 7e c0       	vmovq  %xmm0,%rax
  ca:	c5 f8 28 c1          	vmovaps %xmm1,%xmm0
  ce:	48 89 85 08 ff ff ff 	mov    %rax,-0xf8(%rbp)
  d5:	c5 fa 11 85 10 ff ff 	vmovss %xmm0,-0xf0(%rbp)
  dc:	ff 
    FLOAT factor = 1.0 / lights.size();
  dd:	48 8b 85 d8 fe ff ff 	mov    -0x128(%rbp),%rax
  e4:	48 83 c0 18          	add    $0x18,%rax
  e8:	48 89 c7             	mov    %rax,%rdi
  eb:	e8 00 00 00 00       	callq  f0 <_ZN5Scene5shadeERK3RayIfER8TriangleIfER8MaterialRfS9_S9_+0xf0>
  f0:	48 85 c0             	test   %rax,%rax
  f3:	78 07                	js     fc <_ZN5Scene5shadeERK3RayIfER8TriangleIfER8MaterialRfS9_S9_+0xfc>
  f5:	c4 e1 fb 2a c0       	vcvtsi2sd %rax,%xmm0,%xmm0
  fa:	eb 15                	jmp    111 <_ZN5Scene5shadeERK3RayIfER8TriangleIfER8MaterialRfS9_S9_+0x111>
  fc:	48 89 c2             	mov    %rax,%rdx
  ff:	48 d1 ea             	shr    %rdx
 102:	83 e0 01             	and    $0x1,%eax
 105:	48 09 c2             	or     %rax,%rdx
 108:	c4 e1 fb 2a c2       	vcvtsi2sd %rdx,%xmm0,%xmm0
 10d:	c5 fb 58 c0          	vaddsd %xmm0,%xmm0,%xmm0
 111:	c5 fb 10 0d 00 00 00 	vmovsd 0x0(%rip),%xmm1        # 119 <_ZN5Scene5shadeERK3RayIfER8TriangleIfER8MaterialRfS9_S9_+0x119>
 118:	00 
 119:	c5 f3 5e c0          	vdivsd %xmm0,%xmm1,%xmm0
 11d:	c5 db 5a e0          	vcvtsd2ss %xmm0,%xmm4,%xmm4
 121:	c5 fa 11 a5 e8 fe ff 	vmovss %xmm4,-0x118(%rbp)
 128:	ff 
    Vector<FLOAT, 3> intersection = (ray.getOrigin() + 0.9999 * t * ray.getDirection());
 129:	48 8b 85 d0 fe ff ff 	mov    -0x130(%rbp),%rax
 130:	48 89 c7             	mov    %rax,%rdi
 133:	e8 00 00 00 00       	callq  138 <_ZN5Scene5shadeERK3RayIfER8TriangleIfER8MaterialRfS9_S9_+0x138>
 138:	c4 e1 f9 7e c0       	vmovq  %xmm0,%rax
 13d:	c4 e1 f9 7e ca       	vmovq  %xmm1,%rdx
 142:	48 89 45 80          	mov    %rax,-0x80(%rbp)
 146:	8b 45 88             	mov    -0x78(%rbp),%eax
 149:	83 e0 00             	and    $0x0,%eax
 14c:	09 d0                	or     %edx,%eax
 14e:	89 45 88             	mov    %eax,-0x78(%rbp)
 151:	48 8b 85 b8 fe ff ff 	mov    -0x148(%rbp),%rax
 158:	c5 fa 10 00          	vmovss (%rax),%xmm0
 15c:	c5 fa 5a c0          	vcvtss2sd %xmm0,%xmm0,%xmm0
 160:	c5 fb 10 0d 00 00 00 	vmovsd 0x0(%rip),%xmm1        # 168 <_ZN5Scene5shadeERK3RayIfER8TriangleIfER8MaterialRfS9_S9_+0x168>
 167:	00 
 168:	c5 fb 59 c1          	vmulsd %xmm1,%xmm0,%xmm0
 16c:	c5 fb 5a c0          	vcvtsd2ss %xmm0,%xmm0,%xmm0
 170:	48 8b 55 80          	mov    -0x80(%rbp),%rdx
 174:	8b 45 88             	mov    -0x78(%rbp),%eax
 177:	48 89 95 68 fe ff ff 	mov    %rdx,-0x198(%rbp)
 17e:	c5 fa 7e 8d 68 fe ff 	vmovq  -0x198(%rbp),%xmm1
 185:	ff 
 186:	48 89 85 68 fe ff ff 	mov    %rax,-0x198(%rbp)
 18d:	c5 fa 7e 95 68 fe ff 	vmovq  -0x198(%rbp),%xmm2
 194:	ff 
 195:	e8 00 00 00 00       	callq  19a <_ZN5Scene5shadeERK3RayIfER8TriangleIfER8MaterialRfS9_S9_+0x19a>
 19a:	c4 e1 f9 7e c0       	vmovq  %xmm0,%rax
 19f:	c4 e1 f9 7e ca       	vmovq  %xmm1,%rdx
 1a4:	48 89 45 8c          	mov    %rax,-0x74(%rbp)
 1a8:	8b 45 94             	mov    -0x6c(%rbp),%eax
 1ab:	83 e0 00             	and    $0x0,%eax
 1ae:	09 d0                	or     %edx,%eax
 1b0:	89 45 94             	mov    %eax,-0x6c(%rbp)
 1b3:	48 8b 85 d0 fe ff ff 	mov    -0x130(%rbp),%rax
 1ba:	48 89 c7             	mov    %rax,%rdi
 1bd:	e8 00 00 00 00       	callq  1c2 <_ZN5Scene5shadeERK3RayIfER8TriangleIfER8MaterialRfS9_S9_+0x1c2>
 1c2:	c4 e1 f9 7e c0       	vmovq  %xmm0,%rax
 1c7:	c4 e1 f9 7e ca       	vmovq  %xmm1,%rdx
 1cc:	48 89 45 d0          	mov    %rax,-0x30(%rbp)
 1d0:	8b 45 d8             	mov    -0x28(%rbp),%eax
 1d3:	83 e0 00             	and    $0x0,%eax
 1d6:	09 d0                	or     %edx,%eax
 1d8:	89 45 d8             	mov    %eax,-0x28(%rbp)
 1db:	48 8b 4d 8c          	mov    -0x74(%rbp),%rcx
 1df:	8b 55 94             	mov    -0x6c(%rbp),%edx
 1e2:	48 8d 45 d0          	lea    -0x30(%rbp),%rax
 1e6:	48 89 8d 68 fe ff ff 	mov    %rcx,-0x198(%rbp)
 1ed:	c5 fa 7e 85 68 fe ff 	vmovq  -0x198(%rbp),%xmm0
 1f4:	ff 
 1f5:	48 89 95 68 fe ff ff 	mov    %rdx,-0x198(%rbp)
 1fc:	c5 fa 7e 8d 68 fe ff 	vmovq  -0x198(%rbp),%xmm1
 203:	ff 
 204:	48 89 c7             	mov    %rax,%rdi
 207:	e8 00 00 00 00       	callq  20c <_ZN5Scene5shadeERK3RayIfER8TriangleIfER8MaterialRfS9_S9_+0x20c>
 20c:	c4 e1 f9 7e c0       	vmovq  %xmm0,%rax
 211:	c4 e1 f9 7e ca       	vmovq  %xmm1,%rdx
 216:	48 89 85 50 ff ff ff 	mov    %rax,-0xb0(%rbp)
 21d:	8b 85 58 ff ff ff    	mov    -0xa8(%rbp),%eax
 223:	83 e0 00             	and    $0x0,%eax
 226:	09 d0                	or     %edx,%eax
 228:	89 85 58 ff ff ff    	mov    %eax,-0xa8(%rbp)
    Vector<FLOAT, 3> normal = (u * triangle.n1) + (v * triangle.n2) + ( (1.0 - u - v) * triangle.n3);    
 22e:	48 8b 85 b0 fe ff ff 	mov    -0x150(%rbp),%rax
 235:	c5 fa 10 00          	vmovss (%rax),%xmm0
 239:	c5 fa 5a c0          	vcvtss2sd %xmm0,%xmm0,%xmm0
 23d:	c5 fb 10 0d 00 00 00 	vmovsd 0x0(%rip),%xmm1        # 245 <_ZN5Scene5shadeERK3RayIfER8TriangleIfER8MaterialRfS9_S9_+0x245>
 244:	00 
 245:	c5 f3 5c c0          	vsubsd %xmm0,%xmm1,%xmm0
 249:	48 8b 85 a8 fe ff ff 	mov    -0x158(%rbp),%rax
 250:	c5 fa 10 08          	vmovss (%rax),%xmm1
 254:	c5 f2 5a c9          	vcvtss2sd %xmm1,%xmm1,%xmm1
 258:	c5 fb 5c c1          	vsubsd %xmm1,%xmm0,%xmm0
 25c:	c5 fb 5a c0          	vcvtsd2ss %xmm0,%xmm0,%xmm0
 260:	48 8b 85 c8 fe ff ff 	mov    -0x138(%rbp),%rax
 267:	48 8b 50 3c          	mov    0x3c(%rax),%rdx
 26b:	8b 40 44             	mov    0x44(%rax),%eax
 26e:	48 89 95 68 fe ff ff 	mov    %rdx,-0x198(%rbp)
 275:	c5 fa 7e 8d 68 fe ff 	vmovq  -0x198(%rbp),%xmm1
 27c:	ff 
 27d:	48 89 85 68 fe ff ff 	mov    %rax,-0x198(%rbp)
 284:	c5 fa 7e 95 68 fe ff 	vmovq  -0x198(%rbp),%xmm2
 28b:	ff 
 28c:	e8 00 00 00 00       	callq  291 <_ZN5Scene5shadeERK3RayIfER8TriangleIfER8MaterialRfS9_S9_+0x291>
 291:	c4 e1 f9 7e c0       	vmovq  %xmm0,%rax
 296:	c4 e1 f9 7e ca       	vmovq  %xmm1,%rdx
 29b:	48 89 45 98          	mov    %rax,-0x68(%rbp)
 29f:	8b 45 a0             	mov    -0x60(%rbp),%eax
 2a2:	83 e0 00             	and    $0x0,%eax
 2a5:	09 d0                	or     %edx,%eax
 2a7:	89 45 a0             	mov    %eax,-0x60(%rbp)
 2aa:	48 8b 85 a8 fe ff ff 	mov    -0x158(%rbp),%rax
 2b1:	8b 10                	mov    (%rax),%edx
 2b3:	48 8b 85 c8 fe ff ff 	mov    -0x138(%rbp),%rax
 2ba:	48 8b 48 30          	mov    0x30(%rax),%rcx
 2be:	8b 40 38             	mov    0x38(%rax),%eax
 2c1:	48 89 8d 68 fe ff ff 	mov    %rcx,-0x198(%rbp)
 2c8:	c5 fa 7e 8d 68 fe ff 	vmovq  -0x198(%rbp),%xmm1
 2cf:	ff 
 2d0:	48 89 85 68 fe ff ff 	mov    %rax,-0x198(%rbp)
 2d7:	c5 fa 7e 95 68 fe ff 	vmovq  -0x198(%rbp),%xmm2
 2de:	ff 
 2df:	89 95 68 fe ff ff    	mov    %edx,-0x198(%rbp)
 2e5:	c5 fa 10 85 68 fe ff 	vmovss -0x198(%rbp),%xmm0
 2ec:	ff 
 2ed:	e8 00 00 00 00       	callq  2f2 <_ZN5Scene5shadeERK3RayIfER8TriangleIfER8MaterialRfS9_S9_+0x2f2>
 2f2:	c4 e1 f9 7e c0       	vmovq  %xmm0,%rax
 2f7:	c4 e1 f9 7e ca       	vmovq  %xmm1,%rdx
 2fc:	48 89 45 a4          	mov    %rax,-0x5c(%rbp)
 300:	8b 45 ac             	mov    -0x54(%rbp),%eax
 303:	83 e0 00             	and    $0x0,%eax
 306:	09 d0                	or     %edx,%eax
 308:	89 45 ac             	mov    %eax,-0x54(%rbp)
 30b:	48 8b 85 b0 fe ff ff 	mov    -0x150(%rbp),%rax
 312:	8b 10                	mov    (%rax),%edx
 314:	48 8b 85 c8 fe ff ff 	mov    -0x138(%rbp),%rax
 31b:	48 8b 48 24          	mov    0x24(%rax),%rcx
 31f:	8b 40 2c             	mov    0x2c(%rax),%eax
 322:	48 89 8d 68 fe ff ff 	mov    %rcx,-0x198(%rbp)
 329:	c5 fa 7e 8d 68 fe ff 	vmovq  -0x198(%rbp),%xmm1
 330:	ff 
 331:	48 89 85 68 fe ff ff 	mov    %rax,-0x198(%rbp)
 338:	c5 fa 7e 95 68 fe ff 	vmovq  -0x198(%rbp),%xmm2
 33f:	ff 
 340:	89 95 68 fe ff ff    	mov    %edx,-0x198(%rbp)
 346:	c5 fa 10 85 68 fe ff 	vmovss -0x198(%rbp),%xmm0
 34d:	ff 
 34e:	e8 00 00 00 00       	callq  353 <_ZN5Scene5shadeERK3RayIfER8TriangleIfER8MaterialRfS9_S9_+0x353>
 353:	c4 e1 f9 7e c0       	vmovq  %xmm0,%rax
 358:	c4 e1 f9 7e ca       	vmovq  %xmm1,%rdx
 35d:	48 89 45 b0          	mov    %rax,-0x50(%rbp)
 361:	8b 45 b8             	mov    -0x48(%rbp),%eax
 364:	83 e0 00             	and    $0x0,%eax
 367:	09 d0                	or     %edx,%eax
 369:	89 45 b8             	mov    %eax,-0x48(%rbp)
 36c:	48 8b 4d a4          	mov    -0x5c(%rbp),%rcx
 370:	8b 55 ac             	mov    -0x54(%rbp),%edx
 373:	48 8d 45 b0          	lea    -0x50(%rbp),%rax
 377:	48 89 8d 68 fe ff ff 	mov    %rcx,-0x198(%rbp)
 37e:	c5 fa 7e 85 68 fe ff 	vmovq  -0x198(%rbp),%xmm0
 385:	ff 
 386:	48 89 95 68 fe ff ff 	mov    %rdx,-0x198(%rbp)
 38d:	c5 fa 7e 8d 68 fe ff 	vmovq  -0x198(%rbp),%xmm1
 394:	ff 
 395:	48 89 c7             	mov    %rax,%rdi
 398:	e8 00 00 00 00       	callq  39d <_ZN5Scene5shadeERK3RayIfER8TriangleIfER8MaterialRfS9_S9_+0x39d>
 39d:	c4 e1 f9 7e c0       	vmovq  %xmm0,%rax
 3a2:	c4 e1 f9 7e ca       	vmovq  %xmm1,%rdx
 3a7:	48 89 45 d0          	mov    %rax,-0x30(%rbp)
 3ab:	8b 45 d8             	mov    -0x28(%rbp),%eax
 3ae:	83 e0 00             	and    $0x0,%eax
 3b1:	09 d0                	or     %edx,%eax
 3b3:	89 45 d8             	mov    %eax,-0x28(%rbp)
 3b6:	48 8b 4d 98          	mov    -0x68(%rbp),%rcx
 3ba:	8b 55 a0             	mov    -0x60(%rbp),%edx
 3bd:	48 8d 45 d0          	lea    -0x30(%rbp),%rax
 3c1:	48 89 8d 68 fe ff ff 	mov    %rcx,-0x198(%rbp)
 3c8:	c5 fa 7e 85 68 fe ff 	vmovq  -0x198(%rbp),%xmm0
 3cf:	ff 
 3d0:	48 89 95 68 fe ff ff 	mov    %rdx,-0x198(%rbp)
 3d7:	c5 fa 7e 8d 68 fe ff 	vmovq  -0x198(%rbp),%xmm1
 3de:	ff 
 3df:	48 89 c7             	mov    %rax,%rdi
 3e2:	e8 00 00 00 00       	callq  3e7 <_ZN5Scene5shadeERK3RayIfER8TriangleIfER8MaterialRfS9_S9_+0x3e7>
 3e7:	c4 e1 f9 7e c0       	vmovq  %xmm0,%rax
 3ec:	c4 e1 f9 7e ca       	vmovq  %xmm1,%rdx
 3f1:	48 89 85 5c ff ff ff 	mov    %rax,-0xa4(%rbp)
 3f8:	8b 85 64 ff ff ff    	mov    -0x9c(%rbp),%eax
 3fe:	83 e0 00             	and    $0x0,%eax
 401:	09 d0                	or     %edx,%eax
 403:	89 85 64 ff ff ff    	mov    %eax,-0x9c(%rbp)
    normal.normalize();
 409:	48 8d 85 5c ff ff ff 	lea    -0xa4(%rbp),%rax
 410:	48 89 c7             	mov    %rax,%rdi
 413:	e8 00 00 00 00       	callq  418 <_ZN5Scene5shadeERK3RayIfER8TriangleIfER8MaterialRfS9_S9_+0x418>
    for (Light light : lights) {
 418:	48 8b 85 d8 fe ff ff 	mov    -0x128(%rbp),%rax
 41f:	48 83 c0 18          	add    $0x18,%rax
 423:	48 89 85 00 ff ff ff 	mov    %rax,-0x100(%rbp)
 42a:	48 8b 85 00 ff ff ff 	mov    -0x100(%rbp),%rax
 431:	48 89 c7             	mov    %rax,%rdi
 434:	e8 00 00 00 00       	callq  439 <_ZN5Scene5shadeERK3RayIfER8TriangleIfER8MaterialRfS9_S9_+0x439>
 439:	48 89 85 f0 fe ff ff 	mov    %rax,-0x110(%rbp)
 440:	48 8b 85 00 ff ff ff 	mov    -0x100(%rbp),%rax
 447:	48 89 c7             	mov    %rax,%rdi
 44a:	e8 00 00 00 00       	callq  44f <_ZN5Scene5shadeERK3RayIfER8TriangleIfER8MaterialRfS9_S9_+0x44f>
 44f:	48 89 85 f8 fe ff ff 	mov    %rax,-0x108(%rbp)
 456:	48 8d 95 f8 fe ff ff 	lea    -0x108(%rbp),%rdx
 45d:	48 8d 85 f0 fe ff ff 	lea    -0x110(%rbp),%rax
 464:	48 89 d6             	mov    %rdx,%rsi
 467:	48 89 c7             	mov    %rax,%rdi
 46a:	e8 00 00 00 00       	callq  46f <_ZN5Scene5shadeERK3RayIfER8TriangleIfER8MaterialRfS9_S9_+0x46f>
 46f:	84 c0                	test   %al,%al
 471:	0f 84 0d 03 00 00    	je     784 <_ZN5Scene5shadeERK3RayIfER8TriangleIfER8MaterialRfS9_S9_+0x784>
 477:	48 8d 85 f0 fe ff ff 	lea    -0x110(%rbp),%rax
 47e:	48 89 c7             	mov    %rax,%rdi
 481:	e8 00 00 00 00       	callq  486 <_ZN5Scene5shadeERK3RayIfER8TriangleIfER8MaterialRfS9_S9_+0x486>
 486:	48 89 c1             	mov    %rax,%rcx
 489:	48 8b 01             	mov    (%rcx),%rax
 48c:	48 8b 51 08          	mov    0x8(%rcx),%rdx
 490:	48 89 45 b0          	mov    %rax,-0x50(%rbp)
 494:	48 89 55 b8          	mov    %rdx,-0x48(%rbp)
 498:	48 8b 41 10          	mov    0x10(%rcx),%rax
 49c:	48 89 45 c0          	mov    %rax,-0x40(%rbp)
      Vector<FLOAT, 3> light_direction = light.getPosition() - intersection;
 4a0:	48 8d 45 b0          	lea    -0x50(%rbp),%rax
 4a4:	48 89 c7             	mov    %rax,%rdi
 4a7:	e8 00 00 00 00       	callq  4ac <_ZN5Scene5shadeERK3RayIfER8TriangleIfER8MaterialRfS9_S9_+0x4ac>
 4ac:	c4 e1 f9 7e c0       	vmovq  %xmm0,%rax
 4b1:	c4 e1 f9 7e ca       	vmovq  %xmm1,%rdx
 4b6:	48 89 85 74 ff ff ff 	mov    %rax,-0x8c(%rbp)
 4bd:	8b 85 7c ff ff ff    	mov    -0x84(%rbp),%eax
 4c3:	83 e0 00             	and    $0x0,%eax
 4c6:	09 d0                	or     %edx,%eax
 4c8:	89 85 7c ff ff ff    	mov    %eax,-0x84(%rbp)
 4ce:	48 8b 8d 50 ff ff ff 	mov    -0xb0(%rbp),%rcx
 4d5:	8b 95 58 ff ff ff    	mov    -0xa8(%rbp),%edx
 4db:	48 8d 85 74 ff ff ff 	lea    -0x8c(%rbp),%rax
 4e2:	48 89 8d 68 fe ff ff 	mov    %rcx,-0x198(%rbp)
 4e9:	c5 fa 7e 85 68 fe ff 	vmovq  -0x198(%rbp),%xmm0
 4f0:	ff 
 4f1:	48 89 95 68 fe ff ff 	mov    %rdx,-0x198(%rbp)
 4f8:	c5 fa 7e 8d 68 fe ff 	vmovq  -0x198(%rbp),%xmm1
 4ff:	ff 
 500:	48 89 c7             	mov    %rax,%rdi
 503:	e8 00 00 00 00       	callq  508 <_ZN5Scene5shadeERK3RayIfER8TriangleIfER8MaterialRfS9_S9_+0x508>
 508:	c4 e1 f9 7e c0       	vmovq  %xmm0,%rax
 50d:	c4 e1 f9 7e ca       	vmovq  %xmm1,%rdx
 512:	48 89 85 68 ff ff ff 	mov    %rax,-0x98(%rbp)
 519:	8b 85 70 ff ff ff    	mov    -0x90(%rbp),%eax
 51f:	83 e0 00             	and    $0x0,%eax
 522:	09 d0                	or     %edx,%eax
 524:	89 85 70 ff ff ff    	mov    %eax,-0x90(%rbp)
      const Ray<FLOAT> ray_to_light(intersection, light_direction);
 52a:	48 8b bd 68 ff ff ff 	mov    -0x98(%rbp),%rdi
 531:	8b b5 70 ff ff ff    	mov    -0x90(%rbp),%esi
 537:	48 8b 8d 50 ff ff ff 	mov    -0xb0(%rbp),%rcx
 53e:	8b 95 58 ff ff ff    	mov    -0xa8(%rbp),%edx
 544:	48 8d 45 d0          	lea    -0x30(%rbp),%rax
 548:	48 89 bd 68 fe ff ff 	mov    %rdi,-0x198(%rbp)
 54f:	c5 fa 7e 95 68 fe ff 	vmovq  -0x198(%rbp),%xmm2
 556:	ff 
 557:	48 89 b5 68 fe ff ff 	mov    %rsi,-0x198(%rbp)
 55e:	c5 fa 7e 9d 68 fe ff 	vmovq  -0x198(%rbp),%xmm3
 565:	ff 
 566:	48 89 8d 68 fe ff ff 	mov    %rcx,-0x198(%rbp)
 56d:	c5 fa 7e 85 68 fe ff 	vmovq  -0x198(%rbp),%xmm0
 574:	ff 
 575:	48 89 95 68 fe ff ff 	mov    %rdx,-0x198(%rbp)
 57c:	c5 fa 7e 8d 68 fe ff 	vmovq  -0x198(%rbp),%xmm1
 583:	ff 
 584:	48 89 c7             	mov    %rax,%rdi
 587:	e8 00 00 00 00       	callq  58c <_ZN5Scene5shadeERK3RayIfER8TriangleIfER8MaterialRfS9_S9_+0x58c>
      if ( ! blocked( ray_to_light )  ) { 
 58c:	48 8d 55 d0          	lea    -0x30(%rbp),%rdx
 590:	48 8b 85 d8 fe ff ff 	mov    -0x128(%rbp),%rax
 597:	48 89 d6             	mov    %rdx,%rsi
 59a:	48 89 c7             	mov    %rax,%rdi
 59d:	e8 00 00 00 00       	callq  5a2 <_ZN5Scene5shadeERK3RayIfER8TriangleIfER8MaterialRfS9_S9_+0x5a2>
 5a2:	83 f0 01             	xor    $0x1,%eax
 5a5:	84 c0                	test   %al,%al
 5a7:	0f 84 c3 01 00 00    	je     770 <_ZN5Scene5shadeERK3RayIfER8TriangleIfER8MaterialRfS9_S9_+0x770>
        light_direction.normalize();
 5ad:	48 8d 85 68 ff ff ff 	lea    -0x98(%rbp),%rax
 5b4:	48 89 c7             	mov    %rax,%rdi
 5b7:	e8 00 00 00 00       	callq  5bc <_ZN5Scene5shadeERK3RayIfER8TriangleIfER8MaterialRfS9_S9_+0x5bc>
        FLOAT angle = std::max<FLOAT>(0.0, light_direction.scalar_product(normal));
 5bc:	48 8b 8d 5c ff ff ff 	mov    -0xa4(%rbp),%rcx
 5c3:	8b 95 64 ff ff ff    	mov    -0x9c(%rbp),%edx
 5c9:	48 8d 85 68 ff ff ff 	lea    -0x98(%rbp),%rax
 5d0:	48 89 8d 68 fe ff ff 	mov    %rcx,-0x198(%rbp)
 5d7:	c5 fa 7e 85 68 fe ff 	vmovq  -0x198(%rbp),%xmm0
 5de:	ff 
 5df:	48 89 95 68 fe ff ff 	mov    %rdx,-0x198(%rbp)
 5e6:	c5 fa 7e 8d 68 fe ff 	vmovq  -0x198(%rbp),%xmm1
 5ed:	ff 
 5ee:	48 89 c7             	mov    %rax,%rdi
 5f1:	e8 00 00 00 00       	callq  5f6 <_ZN5Scene5shadeERK3RayIfER8TriangleIfER8MaterialRfS9_S9_+0x5f6>
 5f6:	c5 f9 7e c0          	vmovd  %xmm0,%eax
 5fa:	89 85 44 ff ff ff    	mov    %eax,-0xbc(%rbp)
 600:	c5 f8 57 c0          	vxorps %xmm0,%xmm0,%xmm0
 604:	c5 fa 11 85 e4 fe ff 	vmovss %xmm0,-0x11c(%rbp)
 60b:	ff 
 60c:	48 8d 95 44 ff ff ff 	lea    -0xbc(%rbp),%rdx
 613:	48 8d 85 e4 fe ff ff 	lea    -0x11c(%rbp),%rax
 61a:	48 89 d6             	mov    %rdx,%rsi
 61d:	48 89 c7             	mov    %rax,%rdi
 620:	e8 00 00 00 00       	callq  625 <_ZN5Scene5shadeERK3RayIfER8TriangleIfER8MaterialRfS9_S9_+0x625>
 625:	c5 fa 10 00          	vmovss (%rax),%xmm0
 629:	c5 fa 11 85 ec fe ff 	vmovss %xmm0,-0x114(%rbp)
 630:	ff 
        color = color + angle * factor * material.getDiffuse() * material.getColor() * light.getColor();
 631:	48 8d 45 b0          	lea    -0x50(%rbp),%rax
 635:	48 89 c7             	mov    %rax,%rdi
 638:	e8 00 00 00 00       	callq  63d <_ZN5Scene5shadeERK3RayIfER8TriangleIfER8MaterialRfS9_S9_+0x63d>
 63d:	c4 e1 f9 7e c0       	vmovq  %xmm0,%rax
 642:	c5 f8 28 c1          	vmovaps %xmm1,%xmm0
 646:	48 89 85 20 ff ff ff 	mov    %rax,-0xe0(%rbp)
 64d:	c5 fa 11 85 28 ff ff 	vmovss %xmm0,-0xd8(%rbp)
 654:	ff 
 655:	48 8b 85 c0 fe ff ff 	mov    -0x140(%rbp),%rax
 65c:	48 89 c7             	mov    %rax,%rdi
 65f:	e8 00 00 00 00       	callq  664 <_ZN5Scene5shadeERK3RayIfER8TriangleIfER8MaterialRfS9_S9_+0x664>
 664:	c4 e1 f9 7e c0       	vmovq  %xmm0,%rax
 669:	c5 f8 28 c1          	vmovaps %xmm1,%xmm0
 66d:	48 89 85 2c ff ff ff 	mov    %rax,-0xd4(%rbp)
 674:	c5 fa 11 85 34 ff ff 	vmovss %xmm0,-0xcc(%rbp)
 67b:	ff 
 67c:	c5 fa 10 85 ec fe ff 	vmovss -0x114(%rbp),%xmm0
 683:	ff 
 684:	c5 fa 59 ad e8 fe ff 	vmulss -0x118(%rbp),%xmm0,%xmm5
 68b:	ff 
 68c:	c5 fa 11 ad 68 fe ff 	vmovss %xmm5,-0x198(%rbp)
 693:	ff 
 694:	48 8b 85 c0 fe ff ff 	mov    -0x140(%rbp),%rax
 69b:	48 89 c7             	mov    %rax,%rdi
 69e:	e8 00 00 00 00       	callq  6a3 <_ZN5Scene5shadeERK3RayIfER8TriangleIfER8MaterialRfS9_S9_+0x6a3>
 6a3:	c5 fa 59 85 68 fe ff 	vmulss -0x198(%rbp),%xmm0,%xmm0
 6aa:	ff 
 6ab:	48 8b 85 2c ff ff ff 	mov    -0xd4(%rbp),%rax
 6b2:	c5 fa 10 95 34 ff ff 	vmovss -0xcc(%rbp),%xmm2
 6b9:	ff 
 6ba:	48 89 85 68 fe ff ff 	mov    %rax,-0x198(%rbp)
 6c1:	c5 fa 7e 8d 68 fe ff 	vmovq  -0x198(%rbp),%xmm1
 6c8:	ff 
 6c9:	e8 00 00 00 00       	callq  6ce <_ZN5Scene5shadeERK3RayIfER8TriangleIfER8MaterialRfS9_S9_+0x6ce>
 6ce:	c4 e1 f9 7e c0       	vmovq  %xmm0,%rax
 6d3:	c5 f8 28 c1          	vmovaps %xmm1,%xmm0
 6d7:	48 89 85 44 ff ff ff 	mov    %rax,-0xbc(%rbp)
 6de:	c5 fa 11 85 4c ff ff 	vmovss %xmm0,-0xb4(%rbp)
 6e5:	ff 
 6e6:	48 8b 95 20 ff ff ff 	mov    -0xe0(%rbp),%rdx
 6ed:	c5 fa 10 8d 28 ff ff 	vmovss -0xd8(%rbp),%xmm1
 6f4:	ff 
 6f5:	48 8d 85 44 ff ff ff 	lea    -0xbc(%rbp),%rax
 6fc:	48 89 95 68 fe ff ff 	mov    %rdx,-0x198(%rbp)
 703:	c5 fa 7e 85 68 fe ff 	vmovq  -0x198(%rbp),%xmm0
 70a:	ff 
 70b:	48 89 c7             	mov    %rax,%rdi
 70e:	e8 00 00 00 00       	callq  713 <_ZN5Scene5shadeERK3RayIfER8TriangleIfER8MaterialRfS9_S9_+0x713>
 713:	c4 e1 f9 7e c0       	vmovq  %xmm0,%rax
 718:	c5 f8 28 c1          	vmovaps %xmm1,%xmm0
 71c:	48 89 85 38 ff ff ff 	mov    %rax,-0xc8(%rbp)
 723:	c5 fa 11 85 40 ff ff 	vmovss %xmm0,-0xc0(%rbp)
 72a:	ff 
 72b:	48 8b 95 38 ff ff ff 	mov    -0xc8(%rbp),%rdx
 732:	c5 fa 10 8d 40 ff ff 	vmovss -0xc0(%rbp),%xmm1
 739:	ff 
 73a:	48 8d 85 08 ff ff ff 	lea    -0xf8(%rbp),%rax
 741:	48 89 95 68 fe ff ff 	mov    %rdx,-0x198(%rbp)
 748:	c5 fa 7e 85 68 fe ff 	vmovq  -0x198(%rbp),%xmm0
 74f:	ff 
 750:	48 89 c7             	mov    %rax,%rdi
 753:	e8 00 00 00 00       	callq  758 <_ZN5Scene5shadeERK3RayIfER8TriangleIfER8MaterialRfS9_S9_+0x758>
 758:	c4 e1 f9 7e c0       	vmovq  %xmm0,%rax
 75d:	c5 f8 28 c1          	vmovaps %xmm1,%xmm0
 761:	48 89 85 08 ff ff ff 	mov    %rax,-0xf8(%rbp)
 768:	c5 fa 11 85 10 ff ff 	vmovss %xmm0,-0xf0(%rbp)
 76f:	ff 
    for (Light light : lights) {
 770:	48 8d 85 f0 fe ff ff 	lea    -0x110(%rbp),%rax
 777:	48 89 c7             	mov    %rax,%rdi
 77a:	e8 00 00 00 00       	callq  77f <_ZN5Scene5shadeERK3RayIfER8TriangleIfER8MaterialRfS9_S9_+0x77f>
 77f:	e9 d2 fc ff ff       	jmpq   456 <_ZN5Scene5shadeERK3RayIfER8TriangleIfER8MaterialRfS9_S9_+0x456>
    return color;
 784:	48 8b 85 08 ff ff ff 	mov    -0xf8(%rbp),%rax
 78b:	48 89 85 44 ff ff ff 	mov    %rax,-0xbc(%rbp)
 792:	8b 85 10 ff ff ff    	mov    -0xf0(%rbp),%eax
 798:	89 85 4c ff ff ff    	mov    %eax,-0xb4(%rbp)
 79e:	48 8b 85 44 ff ff ff 	mov    -0xbc(%rbp),%rax
 7a5:	c5 fa 10 85 4c ff ff 	vmovss -0xb4(%rbp),%xmm0
 7ac:	ff 
 7ad:	c5 f8 28 c8          	vmovaps %xmm0,%xmm1
  }
 7b1:	48 89 85 68 fe ff ff 	mov    %rax,-0x198(%rbp)
 7b8:	c5 fa 7e 85 68 fe ff 	vmovq  -0x198(%rbp),%xmm0
 7bf:	ff 
 7c0:	48 8b 45 e8          	mov    -0x18(%rbp),%rax
 7c4:	64 48 33 04 25 28 00 	xor    %fs:0x28,%rax
 7cb:	00 00 
 7cd:	74 0f                	je     7de <_ZN5Scene5shadeERK3RayIfER8TriangleIfER8MaterialRfS9_S9_+0x7de>
 7cf:	eb 08                	jmp    7d9 <_ZN5Scene5shadeERK3RayIfER8TriangleIfER8MaterialRfS9_S9_+0x7d9>
 7d1:	48 89 c7             	mov    %rax,%rdi
 7d4:	e8 00 00 00 00       	callq  7d9 <_ZN5Scene5shadeERK3RayIfER8TriangleIfER8MaterialRfS9_S9_+0x7d9>
 7d9:	e8 00 00 00 00       	callq  7de <_ZN5Scene5shadeERK3RayIfER8TriangleIfER8MaterialRfS9_S9_+0x7de>
 7de:	48 81 c4 a8 01 00 00 	add    $0x1a8,%rsp
 7e5:	41 5a                	pop    %r10
 7e7:	5d                   	pop    %rbp
 7e8:	49 8d 62 f8          	lea    -0x8(%r10),%rsp
 7ec:	c3                   	retq   

Disassembly of section .text._ZN5SceneC2Ev:

0000000000000000 <_ZN5SceneC1Ev>:
class Scene {
   0:	55                   	push   %rbp
   1:	48 89 e5             	mov    %rsp,%rbp
   4:	48 83 ec 10          	sub    $0x10,%rsp
   8:	48 89 7d f8          	mov    %rdi,-0x8(%rbp)
   c:	48 8b 45 f8          	mov    -0x8(%rbp),%rax
  10:	48 89 c7             	mov    %rax,%rdi
  13:	e8 00 00 00 00       	callq  18 <_ZN5SceneC1Ev+0x18>
  18:	48 8b 45 f8          	mov    -0x8(%rbp),%rax
  1c:	48 83 c0 18          	add    $0x18,%rax
  20:	48 89 c7             	mov    %rax,%rdi
  23:	e8 00 00 00 00       	callq  28 <_ZN5SceneC1Ev+0x28>
  28:	90                   	nop
  29:	c9                   	leaveq 
  2a:	c3                   	retq   

Disassembly of section .text._ZN5SceneD2Ev:

0000000000000000 <_ZN5SceneD1Ev>:
   0:	55                   	push   %rbp
   1:	48 89 e5             	mov    %rsp,%rbp
   4:	48 83 ec 10          	sub    $0x10,%rsp
   8:	48 89 7d f8          	mov    %rdi,-0x8(%rbp)
   c:	48 8b 45 f8          	mov    -0x8(%rbp),%rax
  10:	48 83 c0 18          	add    $0x18,%rax
  14:	48 89 c7             	mov    %rax,%rdi
  17:	e8 00 00 00 00       	callq  1c <_ZN5SceneD1Ev+0x1c>
  1c:	48 8b 45 f8          	mov    -0x8(%rbp),%rax
  20:	48 89 c7             	mov    %rax,%rdi
  23:	e8 00 00 00 00       	callq  28 <_ZN5SceneD1Ev+0x28>
  28:	90                   	nop
  29:	c9                   	leaveq 
  2a:	c3                   	retq   

Disassembly of section .text._ZN6ScreenD2Ev:

0000000000000000 <_ZN6ScreenD1Ev>:
class Screen {
   0:	55                   	push   %rbp
   1:	48 89 e5             	mov    %rsp,%rbp
   4:	48 83 ec 10          	sub    $0x10,%rsp
   8:	48 89 7d f8          	mov    %rdi,-0x8(%rbp)
   c:	48 8b 45 f8          	mov    -0x8(%rbp),%rax
  10:	48 83 c0 10          	add    $0x10,%rax
  14:	48 89 c7             	mov    %rax,%rdi
  17:	e8 00 00 00 00       	callq  1c <_ZN6ScreenD1Ev+0x1c>
  1c:	90                   	nop
  1d:	c9                   	leaveq 
  1e:	c3                   	retq   

Disassembly of section .text._ZZN9__gnu_cxx6__stoaIlicJiEEET0_PFT_PKT1_PPS3_DpT2_EPKcS5_PmS9_EN11_Save_errnoC2Ev:

0000000000000000 <_ZZN9__gnu_cxx6__stoaIlicJiEEET0_PFT_PKT1_PPS3_DpT2_EPKcS5_PmS9_EN11_Save_errnoC1Ev>:
      _Ret __ret;

      _CharT* __endptr;

      struct _Save_errno {
	_Save_errno() : _M_errno(errno) { errno = 0; }
   0:	55                   	push   %rbp
   1:	48 89 e5             	mov    %rsp,%rbp
   4:	48 83 ec 10          	sub    $0x10,%rsp
   8:	48 89 7d f8          	mov    %rdi,-0x8(%rbp)
   c:	e8 00 00 00 00       	callq  11 <_ZZN9__gnu_cxx6__stoaIlicJiEEET0_PFT_PKT1_PPS3_DpT2_EPKcS5_PmS9_EN11_Save_errnoC1Ev+0x11>
  11:	8b 10                	mov    (%rax),%edx
  13:	48 8b 45 f8          	mov    -0x8(%rbp),%rax
  17:	89 10                	mov    %edx,(%rax)
  19:	e8 00 00 00 00       	callq  1e <_ZZN9__gnu_cxx6__stoaIlicJiEEET0_PFT_PKT1_PPS3_DpT2_EPKcS5_PmS9_EN11_Save_errnoC1Ev+0x1e>
  1e:	c7 00 00 00 00 00    	movl   $0x0,(%rax)
  24:	90                   	nop
  25:	c9                   	leaveq 
  26:	c3                   	retq   

Disassembly of section .text._ZZN9__gnu_cxx6__stoaIlicJiEEET0_PFT_PKT1_PPS3_DpT2_EPKcS5_PmS9_EN11_Save_errnoD2Ev:

0000000000000000 <_ZZN9__gnu_cxx6__stoaIlicJiEEET0_PFT_PKT1_PPS3_DpT2_EPKcS5_PmS9_EN11_Save_errnoD1Ev>:
	~_Save_errno() { if (errno == 0) errno = _M_errno; }
   0:	55                   	push   %rbp
   1:	48 89 e5             	mov    %rsp,%rbp
   4:	48 83 ec 10          	sub    $0x10,%rsp
   8:	48 89 7d f8          	mov    %rdi,-0x8(%rbp)
   c:	e8 00 00 00 00       	callq  11 <_ZZN9__gnu_cxx6__stoaIlicJiEEET0_PFT_PKT1_PPS3_DpT2_EPKcS5_PmS9_EN11_Save_errnoD1Ev+0x11>
  11:	8b 00                	mov    (%rax),%eax
  13:	85 c0                	test   %eax,%eax
  15:	75 10                	jne    27 <_ZZN9__gnu_cxx6__stoaIlicJiEEET0_PFT_PKT1_PPS3_DpT2_EPKcS5_PmS9_EN11_Save_errnoD1Ev+0x27>
  17:	e8 00 00 00 00       	callq  1c <_ZZN9__gnu_cxx6__stoaIlicJiEEET0_PFT_PKT1_PPS3_DpT2_EPKcS5_PmS9_EN11_Save_errnoD1Ev+0x1c>
  1c:	48 89 c2             	mov    %rax,%rdx
  1f:	48 8b 45 f8          	mov    -0x8(%rbp),%rax
  23:	8b 00                	mov    (%rax),%eax
  25:	89 02                	mov    %eax,(%rdx)
  27:	90                   	nop
  28:	c9                   	leaveq 
  29:	c3                   	retq   

Disassembly of section .text._ZZN9__gnu_cxx6__stoaIlicJiEEET0_PFT_PKT1_PPS3_DpT2_EPKcS5_PmS9_EN10_Range_chk6_S_chkElSt17integral_constantIbLb1EE:

0000000000000000 <_ZZN9__gnu_cxx6__stoaIlicJiEEET0_PFT_PKT1_PPS3_DpT2_EPKcS5_PmS9_EN10_Range_chk6_S_chkElSt17integral_constantIbLb1EE>:
      struct _Range_chk {
	  static bool
	  _S_chk(_TRet, std::false_type) { return false; }

	  static bool
	  _S_chk(_TRet __val, std::true_type) // only called when _Ret is int
   0:	55                   	push   %rbp
   1:	48 89 e5             	mov    %rsp,%rbp
   4:	48 89 7d f8          	mov    %rdi,-0x8(%rbp)
	  {
	    return __val < _TRet(__numeric_traits<int>::__min)
	      || __val > _TRet(__numeric_traits<int>::__max);
   8:	48 81 7d f8 00 00 00 	cmpq   $0xffffffff80000000,-0x8(%rbp)
   f:	80 
  10:	7c 0a                	jl     1c <_ZZN9__gnu_cxx6__stoaIlicJiEEET0_PFT_PKT1_PPS3_DpT2_EPKcS5_PmS9_EN10_Range_chk6_S_chkElSt17integral_constantIbLb1EE+0x1c>
  12:	48 81 7d f8 ff ff ff 	cmpq   $0x7fffffff,-0x8(%rbp)
  19:	7f 
  1a:	7e 07                	jle    23 <_ZZN9__gnu_cxx6__stoaIlicJiEEET0_PFT_PKT1_PPS3_DpT2_EPKcS5_PmS9_EN10_Range_chk6_S_chkElSt17integral_constantIbLb1EE+0x23>
  1c:	b8 01 00 00 00       	mov    $0x1,%eax
  21:	eb 05                	jmp    28 <_ZZN9__gnu_cxx6__stoaIlicJiEEET0_PFT_PKT1_PPS3_DpT2_EPKcS5_PmS9_EN10_Range_chk6_S_chkElSt17integral_constantIbLb1EE+0x28>
  23:	b8 00 00 00 00       	mov    $0x0,%eax
	  }
  28:	5d                   	pop    %rbp
  29:	c3                   	retq   

Disassembly of section .text._ZN9__gnu_cxx6__stoaIlicJiEEET0_PFT_PKT1_PPS3_DpT2_EPKcS5_PmS9_:

0000000000000000 <_ZN9__gnu_cxx6__stoaIlicJiEEET0_PFT_PKT1_PPS3_DpT2_EPKcS5_PmS9_>:
    __stoa(_TRet (*__convf) (const _CharT*, _CharT**, _Base...),
   0:	55                   	push   %rbp
   1:	48 89 e5             	mov    %rsp,%rbp
   4:	53                   	push   %rbx
   5:	48 83 ec 68          	sub    $0x68,%rsp
   9:	48 89 7d b8          	mov    %rdi,-0x48(%rbp)
   d:	48 89 75 b0          	mov    %rsi,-0x50(%rbp)
  11:	48 89 55 a8          	mov    %rdx,-0x58(%rbp)
  15:	48 89 4d a0          	mov    %rcx,-0x60(%rbp)
  19:	44 89 45 9c          	mov    %r8d,-0x64(%rbp)
  1d:	64 48 8b 04 25 28 00 	mov    %fs:0x28,%rax
  24:	00 00 
  26:	48 89 45 e8          	mov    %rax,-0x18(%rbp)
  2a:	31 c0                	xor    %eax,%eax
      } const __save_errno;
  2c:	48 8d 45 d0          	lea    -0x30(%rbp),%rax
  30:	48 89 c7             	mov    %rax,%rdi
  33:	e8 00 00 00 00       	callq  38 <_ZN9__gnu_cxx6__stoaIlicJiEEET0_PFT_PKT1_PPS3_DpT2_EPKcS5_PmS9_+0x38>
      };

      const _TRet __tmp = __convf(__str, &__endptr, __base...);
  38:	8b 55 9c             	mov    -0x64(%rbp),%edx
  3b:	48 8d 75 d8          	lea    -0x28(%rbp),%rsi
  3f:	48 8b 4d a8          	mov    -0x58(%rbp),%rcx
  43:	48 8b 45 b8          	mov    -0x48(%rbp),%rax
  47:	48 89 cf             	mov    %rcx,%rdi
  4a:	ff d0                	callq  *%rax
  4c:	48 89 45 e0          	mov    %rax,-0x20(%rbp)

      if (__endptr == __str)
  50:	48 8b 45 d8          	mov    -0x28(%rbp),%rax
  54:	48 39 45 a8          	cmp    %rax,-0x58(%rbp)
  58:	75 0c                	jne    66 <_ZN9__gnu_cxx6__stoaIlicJiEEET0_PFT_PKT1_PPS3_DpT2_EPKcS5_PmS9_+0x66>
	std::__throw_invalid_argument(__name);
  5a:	48 8b 45 b0          	mov    -0x50(%rbp),%rax
  5e:	48 89 c7             	mov    %rax,%rdi
  61:	e8 00 00 00 00       	callq  66 <_ZN9__gnu_cxx6__stoaIlicJiEEET0_PFT_PKT1_PPS3_DpT2_EPKcS5_PmS9_+0x66>
      else if (errno == ERANGE
  66:	e8 00 00 00 00       	callq  6b <_ZN9__gnu_cxx6__stoaIlicJiEEET0_PFT_PKT1_PPS3_DpT2_EPKcS5_PmS9_+0x6b>
  6b:	8b 00                	mov    (%rax),%eax
	  || _Range_chk::_S_chk(__tmp, std::is_same<_Ret, int>{}))
  6d:	83 f8 22             	cmp    $0x22,%eax
  70:	74 19                	je     8b <_ZN9__gnu_cxx6__stoaIlicJiEEET0_PFT_PKT1_PPS3_DpT2_EPKcS5_PmS9_+0x8b>
  72:	48 8b 45 e0          	mov    -0x20(%rbp),%rax
  76:	48 83 ec 08          	sub    $0x8,%rsp
  7a:	53                   	push   %rbx
  7b:	48 89 c7             	mov    %rax,%rdi
  7e:	e8 00 00 00 00       	callq  83 <_ZN9__gnu_cxx6__stoaIlicJiEEET0_PFT_PKT1_PPS3_DpT2_EPKcS5_PmS9_+0x83>
  83:	48 83 c4 10          	add    $0x10,%rsp
  87:	84 c0                	test   %al,%al
  89:	74 07                	je     92 <_ZN9__gnu_cxx6__stoaIlicJiEEET0_PFT_PKT1_PPS3_DpT2_EPKcS5_PmS9_+0x92>
  8b:	b8 01 00 00 00       	mov    $0x1,%eax
  90:	eb 05                	jmp    97 <_ZN9__gnu_cxx6__stoaIlicJiEEET0_PFT_PKT1_PPS3_DpT2_EPKcS5_PmS9_+0x97>
  92:	b8 00 00 00 00       	mov    $0x0,%eax
      else if (errno == ERANGE
  97:	84 c0                	test   %al,%al
  99:	74 0c                	je     a7 <_ZN9__gnu_cxx6__stoaIlicJiEEET0_PFT_PKT1_PPS3_DpT2_EPKcS5_PmS9_+0xa7>
	std::__throw_out_of_range(__name);
  9b:	48 8b 45 b0          	mov    -0x50(%rbp),%rax
  9f:	48 89 c7             	mov    %rax,%rdi
  a2:	e8 00 00 00 00       	callq  a7 <_ZN9__gnu_cxx6__stoaIlicJiEEET0_PFT_PKT1_PPS3_DpT2_EPKcS5_PmS9_+0xa7>
      else
	__ret = __tmp;
  a7:	48 8b 45 e0          	mov    -0x20(%rbp),%rax
  ab:	89 45 d4             	mov    %eax,-0x2c(%rbp)

      if (__idx)
  ae:	48 83 7d a0 00       	cmpq   $0x0,-0x60(%rbp)
  b3:	74 1b                	je     d0 <_ZN9__gnu_cxx6__stoaIlicJiEEET0_PFT_PKT1_PPS3_DpT2_EPKcS5_PmS9_+0xd0>
	*__idx = __endptr - __str;
  b5:	48 8b 45 d8          	mov    -0x28(%rbp),%rax
  b9:	48 89 c2             	mov    %rax,%rdx
  bc:	48 8b 45 a8          	mov    -0x58(%rbp),%rax
  c0:	48 29 c2             	sub    %rax,%rdx
  c3:	48 89 d0             	mov    %rdx,%rax
  c6:	48 89 c2             	mov    %rax,%rdx
  c9:	48 8b 45 a0          	mov    -0x60(%rbp),%rax
  cd:	48 89 10             	mov    %rdx,(%rax)

      return __ret;
  d0:	8b 5d d4             	mov    -0x2c(%rbp),%ebx
      } const __save_errno;
  d3:	48 8d 45 d0          	lea    -0x30(%rbp),%rax
  d7:	48 89 c7             	mov    %rax,%rdi
  da:	e8 00 00 00 00       	callq  df <_ZN9__gnu_cxx6__stoaIlicJiEEET0_PFT_PKT1_PPS3_DpT2_EPKcS5_PmS9_+0xdf>
      return __ret;
  df:	89 d8                	mov    %ebx,%eax
    }
  e1:	48 8b 4d e8          	mov    -0x18(%rbp),%rcx
  e5:	64 48 33 0c 25 28 00 	xor    %fs:0x28,%rcx
  ec:	00 00 
  ee:	74 21                	je     111 <_ZN9__gnu_cxx6__stoaIlicJiEEET0_PFT_PKT1_PPS3_DpT2_EPKcS5_PmS9_+0x111>
  f0:	eb 1a                	jmp    10c <_ZN9__gnu_cxx6__stoaIlicJiEEET0_PFT_PKT1_PPS3_DpT2_EPKcS5_PmS9_+0x10c>
  f2:	48 89 c3             	mov    %rax,%rbx
      } const __save_errno;
  f5:	48 8d 45 d0          	lea    -0x30(%rbp),%rax
  f9:	48 89 c7             	mov    %rax,%rdi
  fc:	e8 00 00 00 00       	callq  101 <_ZN9__gnu_cxx6__stoaIlicJiEEET0_PFT_PKT1_PPS3_DpT2_EPKcS5_PmS9_+0x101>
 101:	48 89 d8             	mov    %rbx,%rax
 104:	48 89 c7             	mov    %rax,%rdi
 107:	e8 00 00 00 00       	callq  10c <_ZN9__gnu_cxx6__stoaIlicJiEEET0_PFT_PKT1_PPS3_DpT2_EPKcS5_PmS9_+0x10c>
    }
 10c:	e8 00 00 00 00       	callq  111 <_ZN9__gnu_cxx6__stoaIlicJiEEET0_PFT_PKT1_PPS3_DpT2_EPKcS5_PmS9_+0x111>
 111:	48 8b 5d f8          	mov    -0x8(%rbp),%rbx
 115:	c9                   	leaveq 
 116:	c3                   	retq   

Disassembly of section .text._ZNSt10unique_ptrIA_5ColorSt14default_deleteIS1_EEC2IPS0_S3_vbEET_:

0000000000000000 <_ZNSt10unique_ptrIA_5ColorSt14default_deleteIS1_EEC1IPS0_S3_vbEET_>:
	       typename _Vp = _Dp,
	       typename = _DeleterConstraint<_Vp>,
	       typename = typename enable_if<
                 __safe_conversion_raw<_Up>::value, bool>::type>
	explicit
	unique_ptr(_Up __p) noexcept
   0:	55                   	push   %rbp
   1:	48 89 e5             	mov    %rsp,%rbp
   4:	48 83 ec 10          	sub    $0x10,%rsp
   8:	48 89 7d f8          	mov    %rdi,-0x8(%rbp)
   c:	48 89 75 f0          	mov    %rsi,-0x10(%rbp)
	: _M_t(__p)
  10:	48 8b 45 f8          	mov    -0x8(%rbp),%rax
  14:	48 8b 55 f0          	mov    -0x10(%rbp),%rdx
  18:	48 89 d6             	mov    %rdx,%rsi
  1b:	48 89 c7             	mov    %rax,%rdi
  1e:	e8 00 00 00 00       	callq  23 <_ZNSt10unique_ptrIA_5ColorSt14default_deleteIS1_EEC1IPS0_S3_vbEET_+0x23>
        { }
  23:	90                   	nop
  24:	c9                   	leaveq 
  25:	c3                   	retq   

Disassembly of section .text._ZNSt10unique_ptrIA_5ColorSt14default_deleteIS1_EED2Ev:

0000000000000000 <_ZNSt10unique_ptrIA_5ColorSt14default_deleteIS1_EED1Ev>:
	unique_ptr(unique_ptr<_Up, _Ep>&& __u) noexcept
	: _M_t(__u.release(), std::forward<_Ep>(__u.get_deleter()))
	{ }

      /// Destructor, invokes the deleter if the stored pointer is not null.
      ~unique_ptr()
   0:	55                   	push   %rbp
   1:	48 89 e5             	mov    %rsp,%rbp
   4:	48 83 ec 20          	sub    $0x20,%rsp
   8:	48 89 7d e8          	mov    %rdi,-0x18(%rbp)
      {
	auto& __ptr = _M_t._M_ptr();
   c:	48 8b 45 e8          	mov    -0x18(%rbp),%rax
  10:	48 89 c7             	mov    %rax,%rdi
  13:	e8 00 00 00 00       	callq  18 <_ZNSt10unique_ptrIA_5ColorSt14default_deleteIS1_EED1Ev+0x18>
  18:	48 89 45 f8          	mov    %rax,-0x8(%rbp)
	if (__ptr != nullptr)
  1c:	48 8b 45 f8          	mov    -0x8(%rbp),%rax
  20:	48 8b 00             	mov    (%rax),%rax
  23:	48 85 c0             	test   %rax,%rax
  26:	74 21                	je     49 <_ZNSt10unique_ptrIA_5ColorSt14default_deleteIS1_EED1Ev+0x49>
	  get_deleter()(__ptr);
  28:	48 8b 45 e8          	mov    -0x18(%rbp),%rax
  2c:	48 89 c7             	mov    %rax,%rdi
  2f:	e8 00 00 00 00       	callq  34 <_ZNSt10unique_ptrIA_5ColorSt14default_deleteIS1_EED1Ev+0x34>
  34:	48 89 c2             	mov    %rax,%rdx
  37:	48 8b 45 f8          	mov    -0x8(%rbp),%rax
  3b:	48 8b 00             	mov    (%rax),%rax
  3e:	48 89 c6             	mov    %rax,%rsi
  41:	48 89 d7             	mov    %rdx,%rdi
  44:	e8 00 00 00 00       	callq  49 <_ZNSt10unique_ptrIA_5ColorSt14default_deleteIS1_EED1Ev+0x49>
	__ptr = pointer();
  49:	48 8b 45 f8          	mov    -0x8(%rbp),%rax
  4d:	48 c7 00 00 00 00 00 	movq   $0x0,(%rax)
      }
  54:	90                   	nop
  55:	c9                   	leaveq 
  56:	c3                   	retq   

Disassembly of section .text._ZNKSt10unique_ptrIA_5ColorSt14default_deleteIS1_EEixEm:

0000000000000000 <_ZNKSt10unique_ptrIA_5ColorSt14default_deleteIS1_EEixEm>:

      // Observers.

      /// Access an element of owned array.
      typename std::add_lvalue_reference<element_type>::type
      operator[](size_t __i) const
   0:	55                   	push   %rbp
   1:	48 89 e5             	mov    %rsp,%rbp
   4:	48 83 ec 10          	sub    $0x10,%rsp
   8:	48 89 7d f8          	mov    %rdi,-0x8(%rbp)
   c:	48 89 75 f0          	mov    %rsi,-0x10(%rbp)
      {
	__glibcxx_assert(get() != pointer());
	return get()[__i];
  10:	48 8b 45 f8          	mov    -0x8(%rbp),%rax
  14:	48 89 c7             	mov    %rax,%rdi
  17:	e8 00 00 00 00       	callq  1c <_ZNKSt10unique_ptrIA_5ColorSt14default_deleteIS1_EEixEm+0x1c>
  1c:	48 89 c1             	mov    %rax,%rcx
  1f:	48 8b 55 f0          	mov    -0x10(%rbp),%rdx
  23:	48 89 d0             	mov    %rdx,%rax
  26:	48 01 c0             	add    %rax,%rax
  29:	48 01 d0             	add    %rdx,%rax
  2c:	48 c1 e0 02          	shl    $0x2,%rax
  30:	48 01 c8             	add    %rcx,%rax
      }
  33:	c9                   	leaveq 
  34:	c3                   	retq   

Disassembly of section .text._ZNK6VectorIfLm3EEmiES0_:

0000000000000000 <_ZNK6VectorIfLm3EEmiES0_>:
    }

    return sum;
  }

  Vector<T, SIZE> operator-(const Vector<T, SIZE> subtract) const {
   0:	4c 8d 54 24 08       	lea    0x8(%rsp),%r10
   5:	48 83 e4 e0          	and    $0xffffffffffffffe0,%rsp
   9:	41 ff 72 f8          	pushq  -0x8(%r10)
   d:	55                   	push   %rbp
   e:	48 89 e5             	mov    %rsp,%rbp
  11:	41 52                	push   %r10
  13:	48 81 ec a8 00 00 00 	sub    $0xa8,%rsp
  1a:	48 89 7d b8          	mov    %rdi,-0x48(%rbp)
  1e:	c4 e1 f9 7e c0       	vmovq  %xmm0,%rax
  23:	c4 e1 f9 7e ca       	vmovq  %xmm1,%rdx
  28:	48 89 45 a8          	mov    %rax,-0x58(%rbp)
  2c:	8b 45 b0             	mov    -0x50(%rbp),%eax
  2f:	83 e0 00             	and    $0x0,%eax
  32:	09 d0                	or     %edx,%eax
  34:	89 45 b0             	mov    %eax,-0x50(%rbp)
  37:	64 48 8b 04 25 28 00 	mov    %fs:0x28,%rax
  3e:	00 00 
  40:	48 89 45 e8          	mov    %rax,-0x18(%rbp)
  44:	31 c0                	xor    %eax,%eax
    Vector<T, SIZE> difference;
  46:	48 8d 45 d0          	lea    -0x30(%rbp),%rax
  4a:	48 89 c7             	mov    %rax,%rdi
  4d:	e8 00 00 00 00       	callq  52 <_ZNK6VectorIfLm3EEmiES0_+0x52>
 
    for (size_t i = 0u; i < SIZE; i++) {
  52:	48 c7 45 c8 00 00 00 	movq   $0x0,-0x38(%rbp)
  59:	00 
  5a:	48 83 7d c8 02       	cmpq   $0x2,-0x38(%rbp)
  5f:	77 2c                	ja     8d <_ZNK6VectorIfLm3EEmiES0_+0x8d>
      difference.x[i] = this->x[i] - subtract.x[i];
  61:	48 8b 45 b8          	mov    -0x48(%rbp),%rax
  65:	48 8b 55 c8          	mov    -0x38(%rbp),%rdx
  69:	c5 fa 10 04 90       	vmovss (%rax,%rdx,4),%xmm0
  6e:	48 8b 45 c8          	mov    -0x38(%rbp),%rax
  72:	c5 fa 10 4c 85 a8    	vmovss -0x58(%rbp,%rax,4),%xmm1
  78:	c5 fa 5c c1          	vsubss %xmm1,%xmm0,%xmm0
  7c:	48 8b 45 c8          	mov    -0x38(%rbp),%rax
  80:	c5 fa 11 44 85 d0    	vmovss %xmm0,-0x30(%rbp,%rax,4)
    for (size_t i = 0u; i < SIZE; i++) {
  86:	48 83 45 c8 01       	addq   $0x1,-0x38(%rbp)
  8b:	eb cd                	jmp    5a <_ZNK6VectorIfLm3EEmiES0_+0x5a>
    }

    return difference;
  8d:	48 8b 45 d0          	mov    -0x30(%rbp),%rax
  91:	48 89 45 dc          	mov    %rax,-0x24(%rbp)
  95:	8b 45 d8             	mov    -0x28(%rbp),%eax
  98:	89 45 e4             	mov    %eax,-0x1c(%rbp)
  9b:	48 8b 55 dc          	mov    -0x24(%rbp),%rdx
  9f:	8b 45 e4             	mov    -0x1c(%rbp),%eax
  }
  a2:	48 89 95 68 ff ff ff 	mov    %rdx,-0x98(%rbp)
  a9:	c5 fa 7e 85 68 ff ff 	vmovq  -0x98(%rbp),%xmm0
  b0:	ff 
  b1:	48 89 85 68 ff ff ff 	mov    %rax,-0x98(%rbp)
  b8:	c5 fa 7e 8d 68 ff ff 	vmovq  -0x98(%rbp),%xmm1
  bf:	ff 
  c0:	48 8b 45 e8          	mov    -0x18(%rbp),%rax
  c4:	64 48 33 04 25 28 00 	xor    %fs:0x28,%rax
  cb:	00 00 
  cd:	74 05                	je     d4 <_ZNK6VectorIfLm3EEmiES0_+0xd4>
  cf:	e8 00 00 00 00       	callq  d4 <_ZNK6VectorIfLm3EEmiES0_+0xd4>
  d4:	48 81 c4 a8 00 00 00 	add    $0xa8,%rsp
  db:	41 5a                	pop    %r10
  dd:	5d                   	pop    %rbp
  de:	49 8d 62 f8          	lea    -0x8(%r10),%rsp
  e2:	c3                   	retq   

Disassembly of section .text._ZNK6VectorIfLm3EEplES0_:

0000000000000000 <_ZNK6VectorIfLm3EEplES0_>:
  Vector<T, SIZE> operator+(const Vector<T, SIZE> addend) const {
   0:	4c 8d 54 24 08       	lea    0x8(%rsp),%r10
   5:	48 83 e4 e0          	and    $0xffffffffffffffe0,%rsp
   9:	41 ff 72 f8          	pushq  -0x8(%r10)
   d:	55                   	push   %rbp
   e:	48 89 e5             	mov    %rsp,%rbp
  11:	41 52                	push   %r10
  13:	48 81 ec a8 00 00 00 	sub    $0xa8,%rsp
  1a:	48 89 7d b8          	mov    %rdi,-0x48(%rbp)
  1e:	c4 e1 f9 7e c0       	vmovq  %xmm0,%rax
  23:	c4 e1 f9 7e ca       	vmovq  %xmm1,%rdx
  28:	48 89 45 a8          	mov    %rax,-0x58(%rbp)
  2c:	8b 45 b0             	mov    -0x50(%rbp),%eax
  2f:	83 e0 00             	and    $0x0,%eax
  32:	09 d0                	or     %edx,%eax
  34:	89 45 b0             	mov    %eax,-0x50(%rbp)
  37:	64 48 8b 04 25 28 00 	mov    %fs:0x28,%rax
  3e:	00 00 
  40:	48 89 45 e8          	mov    %rax,-0x18(%rbp)
  44:	31 c0                	xor    %eax,%eax
    Vector<T, SIZE> sum;
  46:	48 8d 45 d0          	lea    -0x30(%rbp),%rax
  4a:	48 89 c7             	mov    %rax,%rdi
  4d:	e8 00 00 00 00       	callq  52 <_ZNK6VectorIfLm3EEplES0_+0x52>
    for (size_t i = 0u; i < SIZE; i++) {
  52:	48 c7 45 c8 00 00 00 	movq   $0x0,-0x38(%rbp)
  59:	00 
  5a:	48 83 7d c8 02       	cmpq   $0x2,-0x38(%rbp)
  5f:	77 2c                	ja     8d <_ZNK6VectorIfLm3EEplES0_+0x8d>
      sum.x[i] = this->x[i] + addend.x[i];
  61:	48 8b 45 b8          	mov    -0x48(%rbp),%rax
  65:	48 8b 55 c8          	mov    -0x38(%rbp),%rdx
  69:	c5 fa 10 0c 90       	vmovss (%rax,%rdx,4),%xmm1
  6e:	48 8b 45 c8          	mov    -0x38(%rbp),%rax
  72:	c5 fa 10 44 85 a8    	vmovss -0x58(%rbp,%rax,4),%xmm0
  78:	c5 f2 58 c0          	vaddss %xmm0,%xmm1,%xmm0
  7c:	48 8b 45 c8          	mov    -0x38(%rbp),%rax
  80:	c5 fa 11 44 85 d0    	vmovss %xmm0,-0x30(%rbp,%rax,4)
    for (size_t i = 0u; i < SIZE; i++) {
  86:	48 83 45 c8 01       	addq   $0x1,-0x38(%rbp)
  8b:	eb cd                	jmp    5a <_ZNK6VectorIfLm3EEplES0_+0x5a>
    return sum;
  8d:	48 8b 45 d0          	mov    -0x30(%rbp),%rax
  91:	48 89 45 dc          	mov    %rax,-0x24(%rbp)
  95:	8b 45 d8             	mov    -0x28(%rbp),%eax
  98:	89 45 e4             	mov    %eax,-0x1c(%rbp)
  9b:	48 8b 55 dc          	mov    -0x24(%rbp),%rdx
  9f:	8b 45 e4             	mov    -0x1c(%rbp),%eax
  }
  a2:	48 89 95 68 ff ff ff 	mov    %rdx,-0x98(%rbp)
  a9:	c5 fa 7e 85 68 ff ff 	vmovq  -0x98(%rbp),%xmm0
  b0:	ff 
  b1:	48 89 85 68 ff ff ff 	mov    %rax,-0x98(%rbp)
  b8:	c5 fa 7e 8d 68 ff ff 	vmovq  -0x98(%rbp),%xmm1
  bf:	ff 
  c0:	48 8b 45 e8          	mov    -0x18(%rbp),%rax
  c4:	64 48 33 04 25 28 00 	xor    %fs:0x28,%rax
  cb:	00 00 
  cd:	74 05                	je     d4 <_ZNK6VectorIfLm3EEplES0_+0xd4>
  cf:	e8 00 00 00 00       	callq  d4 <_ZNK6VectorIfLm3EEplES0_+0xd4>
  d4:	48 81 c4 a8 00 00 00 	add    $0xa8,%rsp
  db:	41 5a                	pop    %r10
  dd:	5d                   	pop    %rbp
  de:	49 8d 62 f8          	lea    -0x8(%r10),%rsp
  e2:	c3                   	retq   

Disassembly of section .text._Zmlf6VectorIfLm3EE:

0000000000000000 <_Zmlf6VectorIfLm3EE>:
       this->x[i] /= length;
    }       
  }


  friend Vector<T, SIZE> operator*(const T factor, Vector<T, SIZE>  v)  {
   0:	4c 8d 54 24 08       	lea    0x8(%rsp),%r10
   5:	48 83 e4 e0          	and    $0xffffffffffffffe0,%rsp
   9:	41 ff 72 f8          	pushq  -0x8(%r10)
   d:	55                   	push   %rbp
   e:	48 89 e5             	mov    %rsp,%rbp
  11:	41 52                	push   %r10
  13:	48 81 ec a8 00 00 00 	sub    $0xa8,%rsp
  1a:	c5 fa 11 45 bc       	vmovss %xmm0,-0x44(%rbp)
  1f:	c4 e1 f9 7e c8       	vmovq  %xmm1,%rax
  24:	c4 e1 f9 7e d2       	vmovq  %xmm2,%rdx
  29:	48 89 45 a8          	mov    %rax,-0x58(%rbp)
  2d:	8b 45 b0             	mov    -0x50(%rbp),%eax
  30:	83 e0 00             	and    $0x0,%eax
  33:	09 d0                	or     %edx,%eax
  35:	89 45 b0             	mov    %eax,-0x50(%rbp)
  38:	64 48 8b 04 25 28 00 	mov    %fs:0x28,%rax
  3f:	00 00 
  41:	48 89 45 e8          	mov    %rax,-0x18(%rbp)
  45:	31 c0                	xor    %eax,%eax
    Vector<T, SIZE> product;
  47:	48 8d 45 d0          	lea    -0x30(%rbp),%rax
  4b:	48 89 c7             	mov    %rax,%rdi
  4e:	e8 00 00 00 00       	callq  53 <_Zmlf6VectorIfLm3EE+0x53>

    for (size_t i = 0u; i < SIZE; i++) {
  53:	48 c7 45 c8 00 00 00 	movq   $0x0,-0x38(%rbp)
  5a:	00 
  5b:	48 83 7d c8 02       	cmpq   $0x2,-0x38(%rbp)
  60:	77 4a                	ja     ac <_Zmlf6VectorIfLm3EE+0xac>
      product[i] = factor * v[i];
  62:	48 8b 55 c8          	mov    -0x38(%rbp),%rdx
  66:	48 8d 45 a8          	lea    -0x58(%rbp),%rax
  6a:	48 89 d6             	mov    %rdx,%rsi
  6d:	48 89 c7             	mov    %rax,%rdi
  70:	e8 00 00 00 00       	callq  75 <_Zmlf6VectorIfLm3EE+0x75>
  75:	c5 fa 10 18          	vmovss (%rax),%xmm3
